ARM GAS  C:\Users\MICHAE~1\AppData\Local\Temp\ccSAeRoK.s 			page 1


   1              		.cpu cortex-m4
   2              		.eabi_attribute 27, 1
   3              		.eabi_attribute 28, 1
   4              		.eabi_attribute 20, 1
   5              		.eabi_attribute 21, 1
   6              		.eabi_attribute 23, 3
   7              		.eabi_attribute 24, 1
   8              		.eabi_attribute 25, 1
   9              		.eabi_attribute 26, 1
  10              		.eabi_attribute 30, 2
  11              		.eabi_attribute 34, 1
  12              		.eabi_attribute 18, 4
  13              		.file	"main.c"
  14              		.text
  15              	.Ltext0:
  16              		.cfi_sections	.debug_frame
  17              		.section	.text.calibrate,"ax",%progbits
  18              		.align	1
  19              		.p2align 4,,15
  20              		.global	calibrate
  21              		.syntax unified
  22              		.thumb
  23              		.thumb_func
  24              		.fpu fpv4-sp-d16
  25              		.type	calibrate, %function
  26              	calibrate:
  27              	.LFB260:
  28              		.file 1 "main.c"
  29              		.loc 1 39 0
  30              		.cfi_startproc
  31              		@ args = 0, pretend = 0, frame = 8
  32              		@ frame_needed = 0, uses_anonymous_args = 0
  33 0000 10B5     		push	{r4, lr}
  34              		.cfi_def_cfa_offset 8
  35              		.cfi_offset 4, -8
  36              		.cfi_offset 14, -4
  37 0002 0D4C     		ldr	r4, .L7
  38 0004 82B0     		sub	sp, sp, #8
  39              		.cfi_def_cfa_offset 16
  40              		.loc 1 39 0
  41 0006 2368     		ldr	r3, [r4]
  42 0008 0193     		str	r3, [sp, #4]
  43              		.loc 1 40 0
  44 000a 4FF4FA70 		mov	r0, #500
  45 000e FFF7FEFF 		bl	chThdSleep
  46              	.LVL0:
  47              		.loc 1 41 0
  48 0012 FFF7FEFF 		bl	calibrate_ir
  49              	.LVL1:
  50              		.loc 1 42 0
  51 0016 FFF7FEFF 		bl	calibrate_acc
  52              	.LVL2:
  53              		.loc 1 43 0
  54 001a FFF7FEFF 		bl	calibrate_gyro
  55              	.LVL3:
  56              		.loc 1 44 0
  57 001e 019A     		ldr	r2, [sp, #4]
ARM GAS  C:\Users\MICHAE~1\AppData\Local\Temp\ccSAeRoK.s 			page 2


  58 0020 2368     		ldr	r3, [r4]
  59 0022 9A42     		cmp	r2, r3
  60 0024 06D1     		bne	.L6
  61 0026 4FF4FA70 		mov	r0, #500
  62              		.loc 1 45 0
  63 002a 02B0     		add	sp, sp, #8
  64              		.cfi_remember_state
  65              		.cfi_def_cfa_offset 8
  66              		@ sp needed
  67 002c BDE81040 		pop	{r4, lr}
  68              		.cfi_restore 14
  69              		.cfi_restore 4
  70              		.cfi_def_cfa_offset 0
  71              		.loc 1 44 0
  72 0030 FFF7FEBF 		b	chThdSleep
  73              	.LVL4:
  74              	.L6:
  75              		.cfi_restore_state
  76 0034 FFF7FEFF 		bl	__stack_chk_fail
  77              	.LVL5:
  78              	.L8:
  79              		.align	2
  80              	.L7:
  81 0038 00000000 		.word	__stack_chk_guard
  82              		.cfi_endproc
  83              	.LFE260:
  84              		.size	calibrate, .-calibrate
  85              		.section	.text.startup.main,"ax",%progbits
  86              		.align	1
  87              		.p2align 4,,15
  88              		.global	main
  89              		.syntax unified
  90              		.thumb
  91              		.thumb_func
  92              		.fpu fpv4-sp-d16
  93              		.type	main, %function
  94              	main:
  95              	.LFB261:
  96              		.loc 1 49 0
  97              		.cfi_startproc
  98              		@ args = 0, pretend = 0, frame = 8
  99              		@ frame_needed = 0, uses_anonymous_args = 0
 100 0000 70B5     		push	{r4, r5, r6, lr}
 101              		.cfi_def_cfa_offset 16
 102              		.cfi_offset 4, -16
 103              		.cfi_offset 5, -12
 104              		.cfi_offset 6, -8
 105              		.cfi_offset 14, -4
 106 0002 5E4B     		ldr	r3, .L25
 107 0004 82B0     		sub	sp, sp, #8
 108              		.cfi_def_cfa_offset 24
 109              		.loc 1 49 0
 110 0006 1B68     		ldr	r3, [r3]
 111 0008 0193     		str	r3, [sp, #4]
 112              		.loc 1 51 0
 113 000a FFF7FEFF 		bl	halInit
 114              	.LVL6:
ARM GAS  C:\Users\MICHAE~1\AppData\Local\Temp\ccSAeRoK.s 			page 3


 115              		.loc 1 52 0
 116 000e FFF7FEFF 		bl	chSysInit
 117              	.LVL7:
 118              		.loc 1 53 0
 119 0012 FFF7FEFF 		bl	mpu_init
 120              	.LVL8:
 121              		.loc 1 54 0
 122 0016 5A4A     		ldr	r2, .L25+4
 123 0018 5A49     		ldr	r1, .L25+8
 124 001a 5B48     		ldr	r0, .L25+12
 125 001c FFF7FEFF 		bl	messagebus_init
 126              	.LVL9:
 127              		.loc 1 57 0
 128 0020 FFF7FEFF 		bl	proximity_start
 129              	.LVL10:
 130              		.loc 1 58 0
 131 0024 FFF7FEFF 		bl	imu_start
 132              	.LVL11:
 133              		.loc 1 59 0
 134 0028 FFF7FEFF 		bl	motors_init
 135              	.LVL12:
 136              		.loc 1 62 0
 137 002c FFF7FEFF 		bl	serial_start
 138              	.LVL13:
 139              	.LBB98:
 140              	.LBB99:
 141              	.LBB100:
 142              	.LBB101:
 143              	.LBB102:
 144              	.LBB103:
 145              	.LBB104:
 146              		.file 2 "../../lib/e-puck2_main-processor/ChibiOS//os/ext/CMSIS/include/core_cmFunc.h"
 147              		.loc 2 546 0
 148 0030 2023     		movs	r3, #32
 149              		.syntax unified
 150              	@ 546 "../../lib/e-puck2_main-processor/ChibiOS//os/ext/CMSIS/include/core_cmFunc.h" 1
 151 0032 83F31188 		MSR basepri, r3
 152              	@ 0 "" 2
 153              	.LVL14:
 154              		.thumb
 155              		.syntax unified
 156              	.LBE104:
 157              	.LBE103:
 158              	.LBE102:
 159              	.LBE101:
 160              	.LBE100:
 161              	.LBB106:
 162              	.LBB107:
 163              		.file 3 "../../lib/e-puck2_main-processor/ChibiOS//os/rt/include/chvt.h"
 164              		.loc 3 231 0
 165 0036 554C     		ldr	r4, .L25+16
 166              	.LBE107:
 167              	.LBE106:
 168              	.LBB109:
 169              	.LBB105:
 170              		.file 4 "../../lib/e-puck2_main-processor/ChibiOS//os/rt/include/chsys.h"
 171              		.loc 4 349 0
ARM GAS  C:\Users\MICHAE~1\AppData\Local\Temp\ccSAeRoK.s 			page 4


 172 0038 FFF7FEFF 		bl	_stats_start_measure_crit_thd
 173              	.LVL15:
 174              		.loc 4 350 0
 175 003c FFF7FEFF 		bl	_dbg_check_lock
 176              	.LVL16:
 177              	.LBE105:
 178              	.LBE109:
 179              	.LBB110:
 180              	.LBB108:
 181              		.loc 3 231 0
 182 0040 A36A     		ldr	r3, [r4, #40]
 183              	.LBE108:
 184              	.LBE110:
 185              	.LBB111:
 186              	.LBB112:
 187              		.loc 4 360 0
 188 0042 FFF7FEFF 		bl	_dbg_check_unlock
 189              	.LVL17:
 190              		.loc 4 361 0
 191 0046 FFF7FEFF 		bl	_stats_stop_measure_crit_thd
 192              	.LVL18:
 193              		.loc 4 367 0
 194 004a 2368     		ldr	r3, [r4]
 195 004c A342     		cmp	r3, r4
 196 004e 05D0     		beq	.L10
 197 0050 A269     		ldr	r2, [r4, #24]
 198 0052 9B68     		ldr	r3, [r3, #8]
 199 0054 9268     		ldr	r2, [r2, #8]
 200 0056 9A42     		cmp	r2, r3
 201 0058 C0F08C80 		bcc	.L24
 202              	.L10:
 203              	.LVL19:
 204              	.LBB113:
 205              	.LBB114:
 206              	.LBB115:
 207              		.loc 2 546 0
 208 005c 0025     		movs	r5, #0
 209              		.syntax unified
 210              	@ 546 "../../lib/e-puck2_main-processor/ChibiOS//os/ext/CMSIS/include/core_cmFunc.h" 1
 211 005e 85F31188 		MSR basepri, r5
 212              	@ 0 "" 2
 213              	.LVL20:
 214              		.thumb
 215              		.syntax unified
 216              	.LBE115:
 217              	.LBE114:
 218              	.LBE113:
 219              	.LBE112:
 220              	.LBE111:
 221              	.LBE99:
 222              	.LBE98:
 223              		.loc 1 75 0
 224 0062 FFF7FEFF 		bl	calibrate
 225              	.LVL21:
 226              		.loc 1 82 0
 227 0066 2946     		mov	r1, r5
 228 0068 2846     		mov	r0, r5
ARM GAS  C:\Users\MICHAE~1\AppData\Local\Temp\ccSAeRoK.s 			page 5


 229 006a FFF7FEFF 		bl	map_log_new_point
 230              	.LVL22:
 231              		.loc 1 83 0
 232 006e 6421     		movs	r1, #100
 233 0070 3220     		movs	r0, #50
 234 0072 FFF7FEFF 		bl	map_log_new_point
 235              	.LVL23:
 236              		.loc 1 84 0
 237 0076 4FF4FA71 		mov	r1, #500
 238 007a 0846     		mov	r0, r1
 239 007c FFF7FEFF 		bl	map_log_new_point
 240              	.LVL24:
 241              		.loc 1 85 0
 242 0080 0626     		movs	r6, #6
 243 0082 FFF7FEFF 		bl	map_log_corner
 244              	.LVL25:
 245              	.L11:
 246              		.loc 1 49 0
 247 0086 6425     		movs	r5, #100
 248              	.LVL26:
 249              	.L12:
 250              	.LBB119:
 251              	.LBB120:
 252              		.loc 1 90 0 discriminator 3
 253 0088 1E21     		movs	r1, #30
 254 008a 0846     		mov	r0, r1
 255 008c FFF7FEFF 		bl	map_log_new_point
 256              	.LVL27:
 257              		.loc 1 89 0 discriminator 3
 258 0090 013D     		subs	r5, r5, #1
 259              	.LVL28:
 260 0092 F9D1     		bne	.L12
 261 0094 0A25     		movs	r5, #10
 262              	.LVL29:
 263              	.L13:
 264              	.LBE120:
 265              	.LBB121:
 266              		.loc 1 92 0 discriminator 3
 267 0096 1121     		movs	r1, #17
 268 0098 0020     		movs	r0, #0
 269 009a FFF7FEFF 		bl	map_log_new_point
 270              	.LVL30:
 271              		.loc 1 91 0 discriminator 3
 272 009e 013D     		subs	r5, r5, #1
 273              	.LVL31:
 274 00a0 F9D1     		bne	.L13
 275              	.LBE121:
 276              		.loc 1 93 0 discriminator 2
 277 00a2 FFF7FEFF 		bl	map_log_corner
 278              	.LVL32:
 279              		.loc 1 94 0 discriminator 2
 280 00a6 FFF7FEFF 		bl	map_send_all_data_to_computer
 281              	.LVL33:
 282              		.loc 1 95 0 discriminator 2
 283 00aa 41F28830 		movw	r0, #5000
 284 00ae FFF7FEFF 		bl	chThdSleep
 285              	.LVL34:
ARM GAS  C:\Users\MICHAE~1\AppData\Local\Temp\ccSAeRoK.s 			page 6


 286              		.loc 1 87 0 discriminator 2
 287 00b2 013E     		subs	r6, r6, #1
 288              	.LVL35:
 289 00b4 E7D1     		bne	.L11
 290              	.LBE119:
 291              		.loc 1 97 0
 292 00b6 FFF7FEFF 		bl	map_send_all_data_to_computer
 293              	.LVL36:
 294              		.loc 1 98 0
 295 00ba 41F28830 		movw	r0, #5000
 296 00be FFF7FEFF 		bl	chThdSleep
 297              	.LVL37:
 298 00c2 1426     		movs	r6, #20
 299              	.LVL38:
 300              	.LBB122:
 301              		.loc 1 100 0
 302 00c4 0125     		movs	r5, #1
 303              	.LVL39:
 304              	.L15:
 305              		.loc 1 101 0 discriminator 3
 306 00c6 ABB2     		uxth	r3, r5
 307 00c8 C3EB4331 		rsb	r1, r3, r3, lsl #13
 308 00cc C3EB8101 		rsb	r1, r3, r1, lsl #2
 309 00d0 03EB8303 		add	r3, r3, r3, lsl #2
 310 00d4 5800     		lsls	r0, r3, #1
 311 00d6 4900     		lsls	r1, r1, #1
 312 00d8 1431     		adds	r1, r1, #20
 313 00da 1430     		adds	r0, r0, #20
 314 00dc 09B2     		sxth	r1, r1
 315 00de 00B2     		sxth	r0, r0
 316 00e0 FFF7FEFF 		bl	map_log_new_point
 317              	.LVL40:
 318              		.loc 1 100 0 discriminator 3
 319 00e4 013E     		subs	r6, r6, #1
 320              	.LVL41:
 321 00e6 C5F10005 		rsb	r5, r5, #0
 322              	.LVL42:
 323 00ea ECD1     		bne	.L15
 324              	.LBE122:
 325              		.loc 1 102 0
 326 00ec FFF7FEFF 		bl	map_send_all_data_to_computer
 327              	.LVL43:
 328              		.loc 1 103 0
 329 00f0 41F28830 		movw	r0, #5000
 330 00f4 FFF7FEFF 		bl	chThdSleep
 331              	.LVL44:
 332              	.LBB123:
 333              	.LBB124:
 334              	.LBB125:
 335              	.LBB126:
 336              		.loc 4 367 0
 337 00f8 254E     		ldr	r6, .L25+20
 338              	.LVL45:
 339              	.LBE126:
 340              	.LBE125:
 341              	.LBB131:
 342              	.LBB132:
ARM GAS  C:\Users\MICHAE~1\AppData\Local\Temp\ccSAeRoK.s 			page 7


 343              	.LBB133:
 344              	.LBB134:
 345              	.LBB135:
 346              		.loc 2 546 0
 347 00fa 2025     		movs	r5, #32
 348              	.LVL46:
 349              	.L18:
 350              	.LBE135:
 351              	.LBE134:
 352              	.LBE133:
 353              	.LBE132:
 354              	.LBE131:
 355              	.LBE124:
 356              	.LBE123:
 357              		.loc 1 115 0 discriminator 7
 358 00fc 0220     		movs	r0, #2
 359 00fe FFF7FEFF 		bl	get_acc
 360              	.LVL47:
 361              		.loc 1 117 0 discriminator 7
 362 0102 0A20     		movs	r0, #10
 363 0104 FFF7FEFF 		bl	chThdSleep
 364              	.LVL48:
 365              		.loc 1 119 0 discriminator 7
 366 0108 0220     		movs	r0, #2
 367 010a FFF7FEFF 		bl	get_gyro_rate
 368              	.LVL49:
 369              	.LBB145:
 370              	.LBB144:
 371              	.LBB140:
 372              	.LBB139:
 373              	.LBB138:
 374              	.LBB137:
 375              	.LBB136:
 376              		.loc 2 546 0 discriminator 7
 377              		.syntax unified
 378              	@ 546 "../../lib/e-puck2_main-processor/ChibiOS//os/ext/CMSIS/include/core_cmFunc.h" 1
 379 010e 85F31188 		MSR basepri, r5
 380              	@ 0 "" 2
 381              	.LVL50:
 382              		.thumb
 383              		.syntax unified
 384              	.LBE136:
 385              	.LBE137:
 386              	.LBE138:
 387              		.loc 4 349 0 discriminator 7
 388 0112 FFF7FEFF 		bl	_stats_start_measure_crit_thd
 389              	.LVL51:
 390              		.loc 4 350 0 discriminator 7
 391 0116 FFF7FEFF 		bl	_dbg_check_lock
 392              	.LVL52:
 393              	.LBE139:
 394              	.LBE140:
 395              	.LBB141:
 396              	.LBB142:
 397              		.loc 3 231 0 discriminator 7
 398 011a A36A     		ldr	r3, [r4, #40]
 399              	.LBE142:
ARM GAS  C:\Users\MICHAE~1\AppData\Local\Temp\ccSAeRoK.s 			page 8


 400              	.LBE141:
 401              	.LBB143:
 402              	.LBB130:
 403              		.loc 4 360 0 discriminator 7
 404 011c FFF7FEFF 		bl	_dbg_check_unlock
 405              	.LVL53:
 406              		.loc 4 361 0 discriminator 7
 407 0120 FFF7FEFF 		bl	_stats_stop_measure_crit_thd
 408              	.LVL54:
 409              		.loc 4 367 0 discriminator 7
 410 0124 2368     		ldr	r3, [r4]
 411 0126 A342     		cmp	r3, r4
 412 0128 07D0     		beq	.L16
 413              		.loc 4 367 0 is_stmt 0
 414 012a A269     		ldr	r2, [r4, #24]
 415 012c 9B68     		ldr	r3, [r3, #8]
 416 012e 9268     		ldr	r2, [r2, #8]
 417 0130 9A42     		cmp	r2, r3
 418 0132 02D2     		bcs	.L16
 419 0134 3046     		mov	r0, r6
 420 0136 FFF7FEFF 		bl	chSysHalt
 421              	.LVL55:
 422              	.L16:
 423              	.LBB127:
 424              	.LBB128:
 425              	.LBB129:
 426              		.loc 2 546 0 is_stmt 1
 427 013a 0023     		movs	r3, #0
 428              		.syntax unified
 429              	@ 546 "../../lib/e-puck2_main-processor/ChibiOS//os/ext/CMSIS/include/core_cmFunc.h" 1
 430 013c 83F31188 		MSR basepri, r3
 431              	@ 0 "" 2
 432              	.LVL56:
 433              		.thumb
 434              		.syntax unified
 435              	.LBE129:
 436              	.LBE128:
 437              	.LBE127:
 438              	.LBE130:
 439              	.LBE143:
 440              	.LBE144:
 441              	.LBE145:
 442              	.LBB146:
 443              	.LBB147:
 444              	.LBB148:
 445              	.LBB149:
 446              	.LBB150:
 447              	.LBB151:
 448              	.LBB152:
 449              		.syntax unified
 450              	@ 546 "../../lib/e-puck2_main-processor/ChibiOS//os/ext/CMSIS/include/core_cmFunc.h" 1
 451 0140 85F31188 		MSR basepri, r5
 452              	@ 0 "" 2
 453              	.LVL57:
 454              		.thumb
 455              		.syntax unified
 456              	.LBE152:
ARM GAS  C:\Users\MICHAE~1\AppData\Local\Temp\ccSAeRoK.s 			page 9


 457              	.LBE151:
 458              	.LBE150:
 459              		.loc 4 349 0
 460 0144 FFF7FEFF 		bl	_stats_start_measure_crit_thd
 461              	.LVL58:
 462              		.loc 4 350 0
 463 0148 FFF7FEFF 		bl	_dbg_check_lock
 464              	.LVL59:
 465              	.LBE149:
 466              	.LBE148:
 467              	.LBB153:
 468              	.LBB154:
 469              		.loc 3 231 0
 470 014c A36A     		ldr	r3, [r4, #40]
 471              	.LBE154:
 472              	.LBE153:
 473              	.LBB155:
 474              	.LBB156:
 475              		.loc 4 360 0
 476 014e FFF7FEFF 		bl	_dbg_check_unlock
 477              	.LVL60:
 478              		.loc 4 361 0
 479 0152 FFF7FEFF 		bl	_stats_stop_measure_crit_thd
 480              	.LVL61:
 481              		.loc 4 367 0
 482 0156 2368     		ldr	r3, [r4]
 483 0158 A342     		cmp	r3, r4
 484 015a 07D0     		beq	.L17
 485 015c A269     		ldr	r2, [r4, #24]
 486 015e 9B68     		ldr	r3, [r3, #8]
 487 0160 9268     		ldr	r2, [r2, #8]
 488 0162 9A42     		cmp	r2, r3
 489 0164 02D2     		bcs	.L17
 490 0166 3046     		mov	r0, r6
 491 0168 FFF7FEFF 		bl	chSysHalt
 492              	.LVL62:
 493              	.L17:
 494              	.LBB157:
 495              	.LBB158:
 496              	.LBB159:
 497              		.loc 2 546 0
 498 016c 0023     		movs	r3, #0
 499              		.syntax unified
 500              	@ 546 "../../lib/e-puck2_main-processor/ChibiOS//os/ext/CMSIS/include/core_cmFunc.h" 1
 501 016e 83F31188 		MSR basepri, r3
 502              	@ 0 "" 2
 503              	.LVL63:
 504              		.thumb
 505              		.syntax unified
 506 0172 C3E7     		b	.L18
 507              	.LVL64:
 508              	.L24:
 509              	.LBE159:
 510              	.LBE158:
 511              	.LBE157:
 512              	.LBE156:
 513              	.LBE155:
ARM GAS  C:\Users\MICHAE~1\AppData\Local\Temp\ccSAeRoK.s 			page 10


 514              	.LBE147:
 515              	.LBE146:
 516              	.LBB160:
 517              	.LBB118:
 518              	.LBB117:
 519              	.LBB116:
 520              		.loc 4 367 0
 521 0174 0648     		ldr	r0, .L25+20
 522 0176 FFF7FEFF 		bl	chSysHalt
 523              	.LVL65:
 524 017a 6FE7     		b	.L10
 525              	.L26:
 526              		.align	2
 527              	.L25:
 528 017c 00000000 		.word	__stack_chk_guard
 529 0180 00000000 		.word	.LANCHOR0
 530 0184 00000000 		.word	.LANCHOR1
 531 0188 00000000 		.word	.LANCHOR2
 532 018c 00000000 		.word	ch
 533 0190 00000000 		.word	.LANCHOR3
 534              	.LBE116:
 535              	.LBE117:
 536              	.LBE118:
 537              	.LBE160:
 538              		.cfi_endproc
 539              	.LFE261:
 540              		.size	main, .-main
 541              		.section	.text.__stack_chk_fail,"ax",%progbits
 542              		.align	1
 543              		.p2align 4,,15
 544              		.global	__stack_chk_fail
 545              		.syntax unified
 546              		.thumb
 547              		.thumb_func
 548              		.fpu fpv4-sp-d16
 549              		.type	__stack_chk_fail, %function
 550              	__stack_chk_fail:
 551              	.LFB262:
 552              		.loc 1 154 0
 553              		.cfi_startproc
 554              		@ args = 0, pretend = 0, frame = 8
 555              		@ frame_needed = 0, uses_anonymous_args = 0
 556 0000 00B5     		push	{lr}
 557              		.cfi_def_cfa_offset 4
 558              		.cfi_offset 14, -4
 559 0002 084B     		ldr	r3, .L32
 560 0004 83B0     		sub	sp, sp, #12
 561              		.cfi_def_cfa_offset 16
 562              		.loc 1 154 0
 563 0006 1A68     		ldr	r2, [r3]
 564 0008 0192     		str	r2, [sp, #4]
 565              		.loc 1 155 0
 566 000a 019A     		ldr	r2, [sp, #4]
 567 000c 1B68     		ldr	r3, [r3]
 568 000e 9A42     		cmp	r2, r3
 569 0010 05D1     		bne	.L31
 570 0012 0548     		ldr	r0, .L32+4
ARM GAS  C:\Users\MICHAE~1\AppData\Local\Temp\ccSAeRoK.s 			page 11


 571              		.loc 1 156 0
 572 0014 03B0     		add	sp, sp, #12
 573              		.cfi_remember_state
 574              		.cfi_def_cfa_offset 4
 575              		@ sp needed
 576 0016 5DF804EB 		ldr	lr, [sp], #4
 577              		.cfi_restore 14
 578              		.cfi_def_cfa_offset 0
 579              		.loc 1 155 0
 580 001a FFF7FEBF 		b	chSysHalt
 581              	.LVL66:
 582              	.L31:
 583              		.cfi_restore_state
 584 001e FFF7FEFF 		bl	__stack_chk_fail
 585              	.LVL67:
 586              	.L33:
 587 0022 00BF     		.align	2
 588              	.L32:
 589 0024 00000000 		.word	__stack_chk_guard
 590 0028 00000000 		.word	.LC0
 591              		.cfi_endproc
 592              	.LFE262:
 593              		.size	__stack_chk_fail, .-__stack_chk_fail
 594              		.global	__stack_chk_guard
 595              		.global	bus_condvar
 596              		.global	bus_lock
 597              		.global	bus
 598              		.section	.bss.bus,"aw",%nobits
 599              		.align	2
 600              		.set	.LANCHOR2,. + 0
 601              		.type	bus, %object
 602              		.size	bus, 12
 603              	bus:
 604 0000 00000000 		.space	12
 604      00000000 
 604      00000000 
 605              		.section	.data.__stack_chk_guard,"aw",%progbits
 606              		.align	2
 607              		.type	__stack_chk_guard, %object
 608              		.size	__stack_chk_guard, 4
 609              	__stack_chk_guard:
 610 0000 96E3DEE2 		.word	-488709226
 611              		.section	.data.bus_condvar,"aw",%progbits
 612              		.align	2
 613              		.set	.LANCHOR0,. + 0
 614              		.type	bus_condvar, %object
 615              		.size	bus_condvar, 8
 616              	bus_condvar:
 617 0000 00000000 		.word	bus_condvar
 618 0004 00000000 		.word	bus_condvar
 619              		.section	.data.bus_lock,"aw",%progbits
 620              		.align	2
 621              		.set	.LANCHOR1,. + 0
 622              		.type	bus_lock, %object
 623              		.size	bus_lock, 20
 624              	bus_lock:
 625 0000 00000000 		.word	bus_lock
ARM GAS  C:\Users\MICHAE~1\AppData\Local\Temp\ccSAeRoK.s 			page 12


 626 0004 00000000 		.word	bus_lock
 627 0008 00000000 		.word	0
 628 000c 00000000 		.word	0
 629 0010 00000000 		.word	0
 630              		.section	.rodata.__func__.9289,"a",%progbits
 631              		.align	2
 632              		.set	.LANCHOR3,. + 0
 633              		.type	__func__.9289, %object
 634              		.size	__func__.9289, 12
 635              	__func__.9289:
 636 0000 63685379 		.ascii	"chSysUnlock\000"
 636      73556E6C 
 636      6F636B00 
 637              		.section	.rodata.__stack_chk_fail.str1.4,"aMS",%progbits,1
 638              		.align	2
 639              	.LC0:
 640 0000 53746163 		.ascii	"Stack smashing detected\000"
 640      6B20736D 
 640      61736869 
 640      6E672064 
 640      65746563 
 641              		.text
 642              	.Letext0:
 643              		.file 5 "c:\\eclipse_e-puck2\\tools\\gcc-arm-none-eabi-7-2017-q4-major-win32\\arm-none-eabi\\inclu
 644              		.file 6 "c:\\eclipse_e-puck2\\tools\\gcc-arm-none-eabi-7-2017-q4-major-win32\\lib\\gcc\\arm-none-e
 645              		.file 7 "c:\\eclipse_e-puck2\\tools\\gcc-arm-none-eabi-7-2017-q4-major-win32\\arm-none-eabi\\inclu
 646              		.file 8 "c:\\eclipse_e-puck2\\tools\\gcc-arm-none-eabi-7-2017-q4-major-win32\\arm-none-eabi\\inclu
 647              		.file 9 "c:\\eclipse_e-puck2\\tools\\gcc-arm-none-eabi-7-2017-q4-major-win32\\arm-none-eabi\\inclu
 648              		.file 10 "c:\\eclipse_e-puck2\\tools\\gcc-arm-none-eabi-7-2017-q4-major-win32\\arm-none-eabi\\incl
 649              		.file 11 "c:\\eclipse_e-puck2\\tools\\gcc-arm-none-eabi-7-2017-q4-major-win32\\arm-none-eabi\\incl
 650              		.file 12 "c:\\eclipse_e-puck2\\tools\\gcc-arm-none-eabi-7-2017-q4-major-win32\\arm-none-eabi\\incl
 651              		.file 13 "../../lib/e-puck2_main-processor/ChibiOS//os/rt/ports/ARMCMx/compilers/GCC/chtypes.h"
 652              		.file 14 "../../lib/e-puck2_main-processor/ChibiOS//os/rt/include/chsystypes.h"
 653              		.file 15 "../../lib/e-puck2_main-processor/ChibiOS//os/rt/include/chschd.h"
 654              		.file 16 "../../lib/e-puck2_main-processor/ChibiOS//os/ext/CMSIS/include/core_cm4.h"
 655              		.file 17 "../../lib/e-puck2_main-processor/ChibiOS//os/ext/CMSIS/ST/system_stm32f4xx.h"
 656              		.file 18 "../../lib/e-puck2_main-processor/ChibiOS//os/ext/CMSIS/ST/stm32f407xx.h"
 657              		.file 19 "../../lib/e-puck2_main-processor/ChibiOS//os/rt/ports/ARMCMx/chcore.h"
 658              		.file 20 "../../lib/e-puck2_main-processor/ChibiOS//os/rt/ports/ARMCMx/chcore_v7m.h"
 659              		.file 21 "../../lib/e-puck2_main-processor/ChibiOS//os/rt/include/chdebug.h"
 660              		.file 22 "../../lib/e-puck2_main-processor/ChibiOS//os/rt/include/chtm.h"
 661              		.file 23 "../../lib/e-puck2_main-processor/ChibiOS//os/rt/include/chstats.h"
 662              		.file 24 "../../lib/e-puck2_main-processor/ChibiOS//os/rt/include/chsem.h"
 663              		.file 25 "../../lib/e-puck2_main-processor/ChibiOS//os/rt/include/chmtx.h"
 664              		.file 26 "../../lib/e-puck2_main-processor/ChibiOS//os/rt/include/chregistry.h"
 665              		.file 27 "../../lib/e-puck2_main-processor/ChibiOS//os/rt/include/chcond.h"
 666              		.file 28 "../../lib/e-puck2_main-processor/ChibiOS//os/rt/include/chevents.h"
 667              		.file 29 "../../lib/e-puck2_main-processor/ChibiOS//os/rt/include/chqueues.h"
 668              		.file 30 "../../lib/e-puck2_main-processor/ChibiOS//os/hal/ports/STM32/STM32F4xx/stm32_dma.h"
 669              		.file 31 "../../lib/e-puck2_main-processor/ChibiOS//os/hal/include/hal_ioblock.h"
 670              		.file 32 "../../lib/e-puck2_main-processor/ChibiOS//os/hal/ports/STM32/LLD/GPIOv2/pal_lld.h"
 671              		.file 33 "../../lib/e-puck2_main-processor/ChibiOS//os/hal/include/adc.h"
 672              		.file 34 "../../lib/e-puck2_main-processor/ChibiOS//os/hal/ports/STM32/STM32F4xx/adc_lld.h"
 673              		.file 35 "../../lib/e-puck2_main-processor/ChibiOS//os/hal/include/can.h"
 674              		.file 36 "../../lib/e-puck2_main-processor/ChibiOS//os/hal/ports/STM32/LLD/can_lld.h"
 675              		.file 37 "../../lib/e-puck2_main-processor/ChibiOS//os/hal/include/dac.h"
 676              		.file 38 "../../lib/e-puck2_main-processor/ChibiOS//os/hal/ports/STM32/LLD/DACv1/dac_lld.h"
ARM GAS  C:\Users\MICHAE~1\AppData\Local\Temp\ccSAeRoK.s 			page 13


 677              		.file 39 "../../lib/e-puck2_main-processor/ChibiOS//os/hal/include/ext.h"
 678              		.file 40 "../../lib/e-puck2_main-processor/ChibiOS//os/hal/ports/STM32/LLD/ext_lld.h"
 679              		.file 41 "../../lib/e-puck2_main-processor/ChibiOS//os/hal/include/gpt.h"
 680              		.file 42 "../../lib/e-puck2_main-processor/ChibiOS//os/hal/ports/STM32/LLD/TIMv1/gpt_lld.h"
 681              		.file 43 "../../lib/e-puck2_main-processor/ChibiOS//os/hal/ports/STM32/LLD/TIMv1/stm32_tim.h"
 682              		.file 44 "../../lib/e-puck2_main-processor/ChibiOS//os/hal/include/i2c.h"
 683              		.file 45 "../../lib/e-puck2_main-processor/ChibiOS//os/hal/ports/STM32/LLD/I2Cv1/i2c_lld.h"
 684              		.file 46 "../../lib/e-puck2_main-processor/ChibiOS//os/hal/include/i2s.h"
 685              		.file 47 "../../lib/e-puck2_main-processor/ChibiOS//os/hal/ports/STM32/LLD/SPIv1/i2s_lld.h"
 686              		.file 48 "../../lib/e-puck2_main-processor/ChibiOS//os/hal/include/pwm.h"
 687              		.file 49 "../../lib/e-puck2_main-processor/ChibiOS//os/hal/ports/STM32/LLD/TIMv1/pwm_lld.h"
 688              		.file 50 "../../lib/e-puck2_main-processor/ChibiOS//os/hal/include/serial.h"
 689              		.file 51 "../../lib/e-puck2_main-processor/ChibiOS//os/hal/ports/STM32/LLD/USARTv1/serial_lld.h"
 690              		.file 52 "../../lib/e-puck2_main-processor/ChibiOS//os/hal/include/sdc.h"
 691              		.file 53 "../../lib/e-puck2_main-processor/ChibiOS//os/hal/ports/STM32/LLD/sdc_lld.h"
 692              		.file 54 "../../lib/e-puck2_main-processor/ChibiOS//os/hal/include/spi.h"
 693              		.file 55 "../../lib/e-puck2_main-processor/ChibiOS//os/hal/ports/STM32/LLD/SPIv1/spi_lld.h"
 694              		.file 56 "../../lib/e-puck2_main-processor/ChibiOS//os/hal/include/usb.h"
 695              		.file 57 "../../lib/e-puck2_main-processor/ChibiOS//os/hal/ports/STM32/LLD/OTGv1/usb_lld.h"
 696              		.file 58 "../../lib/e-puck2_main-processor/ChibiOS//os/hal/ports/STM32/LLD/OTGv1/stm32_otg.h"
 697              		.file 59 "../../lib/e-puck2_main-processor/ChibiOS_ext/os/hal/include/../ports/STM32/STM32F4xx/dcm
 698              		.file 60 "c:\\eclipse_e-puck2\\tools\\gcc-arm-none-eabi-7-2017-q4-major-win32\\arm-none-eabi\\incl
 699              		.file 61 "../../lib/e-puck2_main-processor/src/msgbus/messagebus.h"
 700              		.file 62 "../../lib/e-puck2_main-processor/src/parameter/parameter.h"
 701              		.file 63 "./main.h"
 702              		.file 64 "map.h"
 703              		.file 65 "../../lib/e-puck2_main-processor/ChibiOS//os/rt/include/chthreads.h"
 704              		.file 66 "../../lib/e-puck2_main-processor/ChibiOS//os/hal/include/hal.h"
 705              		.file 67 "../../lib/e-puck2_main-processor/src/memory_protection.h"
 706              		.file 68 "../../lib/e-puck2_main-processor/src/sensors\\proximity.h"
 707              		.file 69 "../../lib/e-puck2_main-processor/src/sensors\\imu.h"
 708              		.file 70 "../../lib/e-puck2_main-processor/src/motors.h"
 709              		.file 71 "transmission.h"