ARM GAS  C:\Users\MICHAE~1\AppData\Local\Temp\cc5ppSs7.s 			page 1


   1              		.cpu cortex-m4
   2              		.eabi_attribute 27, 1
   3              		.eabi_attribute 28, 1
   4              		.eabi_attribute 20, 1
   5              		.eabi_attribute 21, 1
   6              		.eabi_attribute 23, 3
   7              		.eabi_attribute 24, 1
   8              		.eabi_attribute 25, 1
   9              		.eabi_attribute 26, 1
  10              		.eabi_attribute 30, 2
  11              		.eabi_attribute 34, 1
  12              		.eabi_attribute 18, 4
  13              		.file	"map.c"
  14              		.text
  15              	.Ltext0:
  16              		.cfi_sections	.debug_frame
  17              		.section	.text.chprintf.constprop.0,"ax",%progbits
  18              		.align	1
  19              		.p2align 4,,15
  20              		.syntax unified
  21              		.thumb
  22              		.thumb_func
  23              		.fpu fpv4-sp-d16
  24              		.type	chprintf.constprop.0, %function
  25              	chprintf.constprop.0:
  26              	.LFB271:
  27              		.file 1 "../../lib/e-puck2_main-processor/ChibiOS//os/hal/lib/streams/chprintf.h"
  28              		.loc 1 69 0
  29              		.cfi_startproc
  30              		@ args = 4, pretend = 12, frame = 8
  31              		@ frame_needed = 0, uses_anonymous_args = 1
  32              	.LVL0:
  33 0000 0EB4     		push	{r1, r2, r3}
  34              		.cfi_def_cfa_offset 12
  35              		.cfi_offset 1, -12
  36              		.cfi_offset 2, -8
  37              		.cfi_offset 3, -4
  38 0002 10B5     		push	{r4, lr}
  39              		.cfi_def_cfa_offset 20
  40              		.cfi_offset 4, -20
  41              		.cfi_offset 14, -16
  42 0004 83B0     		sub	sp, sp, #12
  43              		.cfi_def_cfa_offset 32
  44              		.loc 1 69 0
  45 0006 05AA     		add	r2, sp, #20
  46 0008 094C     		ldr	r4, .L6
  47 000a 52F8041B 		ldr	r1, [r2], #4
  48 000e 2368     		ldr	r3, [r4]
  49              		.loc 1 74 0
  50 0010 0848     		ldr	r0, .L6+4
  51              	.LVL1:
  52              		.loc 1 73 0
  53 0012 0092     		str	r2, [sp]
  54              		.loc 1 69 0
  55 0014 0193     		str	r3, [sp, #4]
  56              	.LVL2:
  57              		.loc 1 74 0
ARM GAS  C:\Users\MICHAE~1\AppData\Local\Temp\cc5ppSs7.s 			page 2


  58 0016 FFF7FEFF 		bl	chvprintf
  59              	.LVL3:
  60              		.loc 1 78 0
  61 001a 019A     		ldr	r2, [sp, #4]
  62 001c 2368     		ldr	r3, [r4]
  63 001e 9A42     		cmp	r2, r3
  64 0020 04D1     		bne	.L5
  65 0022 03B0     		add	sp, sp, #12
  66              		.cfi_remember_state
  67              		.cfi_def_cfa_offset 20
  68              		@ sp needed
  69 0024 BDE81040 		pop	{r4, lr}
  70              		.cfi_restore 14
  71              		.cfi_restore 4
  72              		.cfi_def_cfa_offset 12
  73 0028 03B0     		add	sp, sp, #12
  74              		.cfi_restore 3
  75              		.cfi_restore 2
  76              		.cfi_restore 1
  77              		.cfi_def_cfa_offset 0
  78 002a 7047     		bx	lr
  79              	.L5:
  80              		.cfi_restore_state
  81 002c FFF7FEFF 		bl	__stack_chk_fail
  82              	.LVL4:
  83              	.L7:
  84              		.align	2
  85              	.L6:
  86 0030 00000000 		.word	__stack_chk_guard
  87 0034 00000000 		.word	SD3
  88              		.cfi_endproc
  89              	.LFE271:
  90              		.size	chprintf.constprop.0, .-chprintf.constprop.0
  91              		.section	.text.new_point,"ax",%progbits
  92              		.align	1
  93              		.p2align 4,,15
  94              		.global	new_point
  95              		.syntax unified
  96              		.thumb
  97              		.thumb_func
  98              		.fpu fpv4-sp-d16
  99              		.type	new_point, %function
 100              	new_point:
 101              	.LFB257:
 102              		.file 2 "map.c"
 103              		.loc 2 63 0
 104              		.cfi_startproc
 105              		@ args = 0, pretend = 0, frame = 8
 106              		@ frame_needed = 0, uses_anonymous_args = 0
 107 0000 10B5     		push	{r4, lr}
 108              		.cfi_def_cfa_offset 8
 109              		.cfi_offset 4, -8
 110              		.cfi_offset 14, -4
 111 0002 114C     		ldr	r4, .L19
 112 0004 82B0     		sub	sp, sp, #8
 113              		.cfi_def_cfa_offset 16
 114              		.loc 2 63 0
ARM GAS  C:\Users\MICHAE~1\AppData\Local\Temp\cc5ppSs7.s 			page 3


 115 0006 2368     		ldr	r3, [r4]
 116 0008 0193     		str	r3, [sp, #4]
 117              		.loc 2 64 0
 118 000a 1020     		movs	r0, #16
 119 000c FFF7FEFF 		bl	malloc
 120              	.LVL5:
 121              		.loc 2 65 0
 122 0010 68B1     		cbz	r0, .L8
 123              		.loc 2 70 0
 124 0012 0E4A     		ldr	r2, .L19+4
 125 0014 1368     		ldr	r3, [r2]
 126 0016 83B1     		cbz	r3, .L17
 127              		.loc 2 77 0
 128 0018 0D4B     		ldr	r3, .L19+8
 129 001a 1A68     		ldr	r2, [r3]
 130 001c D060     		str	r0, [r2, #12]
 131              		.loc 2 78 0
 132 001e 8260     		str	r2, [r0, #8]
 133              	.L11:
 134              		.loc 2 83 0
 135 0020 0C4A     		ldr	r2, .L19+12
 136              		.loc 2 80 0
 137 0022 1860     		str	r0, [r3]
 138              		.loc 2 83 0
 139 0024 1388     		ldrh	r3, [r2]
 140              		.loc 2 81 0
 141 0026 0021     		movs	r1, #0
 142              		.loc 2 83 0
 143 0028 0133     		adds	r3, r3, #1
 144 002a 1380     		strh	r3, [r2]	@ movhi
 145              		.loc 2 81 0
 146 002c C160     		str	r1, [r0, #12]
 147              	.L8:
 148              		.loc 2 86 0
 149 002e 019A     		ldr	r2, [sp, #4]
 150 0030 2368     		ldr	r3, [r4]
 151 0032 9A42     		cmp	r2, r3
 152 0034 05D1     		bne	.L18
 153 0036 02B0     		add	sp, sp, #8
 154              		.cfi_remember_state
 155              		.cfi_def_cfa_offset 8
 156              		@ sp needed
 157 0038 10BD     		pop	{r4, pc}
 158              	.L17:
 159              		.cfi_restore_state
 160              		.loc 2 73 0
 161 003a 8360     		str	r3, [r0, #8]
 162              		.loc 2 72 0
 163 003c 1060     		str	r0, [r2]
 164 003e 044B     		ldr	r3, .L19+8
 165 0040 EEE7     		b	.L11
 166              	.L18:
 167              		.loc 2 86 0
 168 0042 FFF7FEFF 		bl	__stack_chk_fail
 169              	.LVL6:
 170              	.L20:
 171 0046 00BF     		.align	2
ARM GAS  C:\Users\MICHAE~1\AppData\Local\Temp\cc5ppSs7.s 			page 4


 172              	.L19:
 173 0048 00000000 		.word	__stack_chk_guard
 174 004c 00000000 		.word	.LANCHOR0
 175 0050 00000000 		.word	.LANCHOR1
 176 0054 00000000 		.word	.LANCHOR2
 177              		.cfi_endproc
 178              	.LFE257:
 179              		.size	new_point, .-new_point
 180              		.section	.text.destroy_point,"ax",%progbits
 181              		.align	1
 182              		.p2align 4,,15
 183              		.global	destroy_point
 184              		.syntax unified
 185              		.thumb
 186              		.thumb_func
 187              		.fpu fpv4-sp-d16
 188              		.type	destroy_point, %function
 189              	destroy_point:
 190              	.LFB258:
 191              		.loc 2 89 0
 192              		.cfi_startproc
 193              		@ args = 0, pretend = 0, frame = 8
 194              		@ frame_needed = 0, uses_anonymous_args = 0
 195              	.LVL7:
 196 0000 10B5     		push	{r4, lr}
 197              		.cfi_def_cfa_offset 8
 198              		.cfi_offset 4, -8
 199              		.cfi_offset 14, -4
 200              		.loc 2 90 0
 201 0002 134B     		ldr	r3, .L36
 202              		.loc 2 89 0
 203 0004 134C     		ldr	r4, .L36+4
 204              		.loc 2 90 0
 205 0006 1A68     		ldr	r2, [r3]
 206              		.loc 2 89 0
 207 0008 2168     		ldr	r1, [r4]
 208 000a 82B0     		sub	sp, sp, #8
 209              		.cfi_def_cfa_offset 16
 210              		.loc 2 90 0
 211 000c 8242     		cmp	r2, r0
 212              		.loc 2 89 0
 213 000e 0191     		str	r1, [sp, #4]
 214              		.loc 2 90 0
 215 0010 13D0     		beq	.L34
 216 0012 D0E90223 		ldrd	r2, r3, [r0, #8]
 217              		.loc 2 102 0
 218 0016 0AB1     		cbz	r2, .L25
 219              		.loc 2 103 0
 220 0018 D360     		str	r3, [r2, #12]
 221 001a C368     		ldr	r3, [r0, #12]
 222              	.L25:
 223              		.loc 2 104 0
 224 001c 0BB1     		cbz	r3, .L24
 225              		.loc 2 105 0
 226 001e 8268     		ldr	r2, [r0, #8]
 227 0020 9A60     		str	r2, [r3, #8]
 228              	.L24:
ARM GAS  C:\Users\MICHAE~1\AppData\Local\Temp\cc5ppSs7.s 			page 5


 229              		.loc 2 107 0
 230 0022 FFF7FEFF 		bl	free
 231              	.LVL8:
 232              		.loc 2 109 0
 233 0026 0C4A     		ldr	r2, .L36+8
 234              		.loc 2 110 0
 235 0028 0198     		ldr	r0, [sp, #4]
 236              		.loc 2 109 0
 237 002a 1388     		ldrh	r3, [r2]
 238              		.loc 2 110 0
 239 002c 2168     		ldr	r1, [r4]
 240              		.loc 2 109 0
 241 002e 013B     		subs	r3, r3, #1
 242              		.loc 2 110 0
 243 0030 8842     		cmp	r0, r1
 244              		.loc 2 109 0
 245 0032 1380     		strh	r3, [r2]	@ movhi
 246              		.loc 2 110 0
 247 0034 09D1     		bne	.L35
 248 0036 02B0     		add	sp, sp, #8
 249              		.cfi_remember_state
 250              		.cfi_def_cfa_offset 8
 251              		@ sp needed
 252 0038 10BD     		pop	{r4, pc}
 253              	.LVL9:
 254              	.L34:
 255              		.cfi_restore_state
 256              		.loc 2 92 0
 257 003a C268     		ldr	r2, [r0, #12]
 258 003c 1AB1     		cbz	r2, .L23
 259              		.loc 2 95 0
 260 003e 0021     		movs	r1, #0
 261              		.loc 2 94 0
 262 0040 1A60     		str	r2, [r3]
 263              		.loc 2 95 0
 264 0042 9160     		str	r1, [r2, #8]
 265 0044 EDE7     		b	.L24
 266              	.L23:
 267              		.loc 2 98 0
 268 0046 1A60     		str	r2, [r3]
 269 0048 EBE7     		b	.L24
 270              	.LVL10:
 271              	.L35:
 272              		.loc 2 110 0
 273 004a FFF7FEFF 		bl	__stack_chk_fail
 274              	.LVL11:
 275              	.L37:
 276 004e 00BF     		.align	2
 277              	.L36:
 278 0050 00000000 		.word	.LANCHOR0
 279 0054 00000000 		.word	__stack_chk_guard
 280 0058 00000000 		.word	.LANCHOR2
 281              		.cfi_endproc
 282              	.LFE258:
 283              		.size	destroy_point, .-destroy_point
 284              		.section	.text.destroy_all_points,"ax",%progbits
 285              		.align	1
ARM GAS  C:\Users\MICHAE~1\AppData\Local\Temp\cc5ppSs7.s 			page 6


 286              		.p2align 4,,15
 287              		.global	destroy_all_points
 288              		.syntax unified
 289              		.thumb
 290              		.thumb_func
 291              		.fpu fpv4-sp-d16
 292              		.type	destroy_all_points, %function
 293              	destroy_all_points:
 294              	.LFB259:
 295              		.loc 2 113 0
 296              		.cfi_startproc
 297              		@ args = 0, pretend = 0, frame = 8
 298              		@ frame_needed = 0, uses_anonymous_args = 0
 299 0000 30B5     		push	{r4, r5, lr}
 300              		.cfi_def_cfa_offset 12
 301              		.cfi_offset 4, -12
 302              		.cfi_offset 5, -8
 303              		.cfi_offset 14, -4
 304              		.loc 2 114 0
 305 0002 0A4C     		ldr	r4, .L48
 306              		.loc 2 113 0
 307 0004 0A4D     		ldr	r5, .L48+4
 308              		.loc 2 114 0
 309 0006 2068     		ldr	r0, [r4]
 310              		.loc 2 113 0
 311 0008 2B68     		ldr	r3, [r5]
 312 000a 83B0     		sub	sp, sp, #12
 313              		.cfi_def_cfa_offset 24
 314              		.loc 2 113 0
 315 000c 0193     		str	r3, [sp, #4]
 316              		.loc 2 114 0
 317 000e 20B1     		cbz	r0, .L38
 318              	.L40:
 319              		.loc 2 116 0
 320 0010 FFF7FEFF 		bl	destroy_point
 321              	.LVL12:
 322              		.loc 2 114 0
 323 0014 2068     		ldr	r0, [r4]
 324 0016 0028     		cmp	r0, #0
 325 0018 FAD1     		bne	.L40
 326              	.L38:
 327              		.loc 2 118 0
 328 001a 019A     		ldr	r2, [sp, #4]
 329 001c 2B68     		ldr	r3, [r5]
 330 001e 9A42     		cmp	r2, r3
 331 0020 01D1     		bne	.L47
 332 0022 03B0     		add	sp, sp, #12
 333              		.cfi_remember_state
 334              		.cfi_def_cfa_offset 12
 335              		@ sp needed
 336 0024 30BD     		pop	{r4, r5, pc}
 337              	.L47:
 338              		.cfi_restore_state
 339 0026 FFF7FEFF 		bl	__stack_chk_fail
 340              	.LVL13:
 341              	.L49:
 342 002a 00BF     		.align	2
ARM GAS  C:\Users\MICHAE~1\AppData\Local\Temp\cc5ppSs7.s 			page 7


 343              	.L48:
 344 002c 00000000 		.word	.LANCHOR0
 345 0030 00000000 		.word	__stack_chk_guard
 346              		.cfi_endproc
 347              	.LFE259:
 348              		.size	destroy_all_points, .-destroy_all_points
 349              		.section	.text.new_wall,"ax",%progbits
 350              		.align	1
 351              		.p2align 4,,15
 352              		.global	new_wall
 353              		.syntax unified
 354              		.thumb
 355              		.thumb_func
 356              		.fpu fpv4-sp-d16
 357              		.type	new_wall, %function
 358              	new_wall:
 359              	.LFB260:
 360              		.loc 2 121 0
 361              		.cfi_startproc
 362              		@ args = 0, pretend = 0, frame = 8
 363              		@ frame_needed = 0, uses_anonymous_args = 0
 364 0000 10B5     		push	{r4, lr}
 365              		.cfi_def_cfa_offset 8
 366              		.cfi_offset 4, -8
 367              		.cfi_offset 14, -4
 368 0002 114C     		ldr	r4, .L61
 369 0004 82B0     		sub	sp, sp, #8
 370              		.cfi_def_cfa_offset 16
 371              		.loc 2 121 0
 372 0006 2368     		ldr	r3, [r4]
 373 0008 0193     		str	r3, [sp, #4]
 374              		.loc 2 122 0
 375 000a 1820     		movs	r0, #24
 376 000c FFF7FEFF 		bl	malloc
 377              	.LVL14:
 378              		.loc 2 123 0
 379 0010 68B1     		cbz	r0, .L50
 380              		.loc 2 128 0
 381 0012 0E4A     		ldr	r2, .L61+4
 382 0014 1368     		ldr	r3, [r2]
 383 0016 83B1     		cbz	r3, .L59
 384              		.loc 2 135 0
 385 0018 0D4B     		ldr	r3, .L61+8
 386 001a 1A68     		ldr	r2, [r3]
 387 001c 5061     		str	r0, [r2, #20]
 388              		.loc 2 136 0
 389 001e 0261     		str	r2, [r0, #16]
 390              	.L53:
 391              		.loc 2 141 0
 392 0020 0C4A     		ldr	r2, .L61+12
 393              		.loc 2 138 0
 394 0022 1860     		str	r0, [r3]
 395              		.loc 2 141 0
 396 0024 1388     		ldrh	r3, [r2]
 397              		.loc 2 139 0
 398 0026 0021     		movs	r1, #0
 399              		.loc 2 141 0
ARM GAS  C:\Users\MICHAE~1\AppData\Local\Temp\cc5ppSs7.s 			page 8


 400 0028 0133     		adds	r3, r3, #1
 401 002a 1380     		strh	r3, [r2]	@ movhi
 402              		.loc 2 139 0
 403 002c 4161     		str	r1, [r0, #20]
 404              	.L50:
 405              		.loc 2 144 0
 406 002e 019A     		ldr	r2, [sp, #4]
 407 0030 2368     		ldr	r3, [r4]
 408 0032 9A42     		cmp	r2, r3
 409 0034 05D1     		bne	.L60
 410 0036 02B0     		add	sp, sp, #8
 411              		.cfi_remember_state
 412              		.cfi_def_cfa_offset 8
 413              		@ sp needed
 414 0038 10BD     		pop	{r4, pc}
 415              	.L59:
 416              		.cfi_restore_state
 417              		.loc 2 131 0
 418 003a 0361     		str	r3, [r0, #16]
 419              		.loc 2 130 0
 420 003c 1060     		str	r0, [r2]
 421 003e 044B     		ldr	r3, .L61+8
 422 0040 EEE7     		b	.L53
 423              	.L60:
 424              		.loc 2 144 0
 425 0042 FFF7FEFF 		bl	__stack_chk_fail
 426              	.LVL15:
 427              	.L62:
 428 0046 00BF     		.align	2
 429              	.L61:
 430 0048 00000000 		.word	__stack_chk_guard
 431 004c 00000000 		.word	.LANCHOR3
 432 0050 00000000 		.word	.LANCHOR4
 433 0054 00000000 		.word	.LANCHOR5
 434              		.cfi_endproc
 435              	.LFE260:
 436              		.size	new_wall, .-new_wall
 437              		.section	.text.destroy_wall,"ax",%progbits
 438              		.align	1
 439              		.p2align 4,,15
 440              		.global	destroy_wall
 441              		.syntax unified
 442              		.thumb
 443              		.thumb_func
 444              		.fpu fpv4-sp-d16
 445              		.type	destroy_wall, %function
 446              	destroy_wall:
 447              	.LFB261:
 448              		.loc 2 147 0
 449              		.cfi_startproc
 450              		@ args = 0, pretend = 0, frame = 8
 451              		@ frame_needed = 0, uses_anonymous_args = 0
 452              	.LVL16:
 453 0000 10B5     		push	{r4, lr}
 454              		.cfi_def_cfa_offset 8
 455              		.cfi_offset 4, -8
 456              		.cfi_offset 14, -4
ARM GAS  C:\Users\MICHAE~1\AppData\Local\Temp\cc5ppSs7.s 			page 9


 457              		.loc 2 148 0
 458 0002 134B     		ldr	r3, .L78
 459              		.loc 2 147 0
 460 0004 134C     		ldr	r4, .L78+4
 461              		.loc 2 148 0
 462 0006 1A68     		ldr	r2, [r3]
 463              		.loc 2 147 0
 464 0008 2168     		ldr	r1, [r4]
 465 000a 82B0     		sub	sp, sp, #8
 466              		.cfi_def_cfa_offset 16
 467              		.loc 2 148 0
 468 000c 8242     		cmp	r2, r0
 469              		.loc 2 147 0
 470 000e 0191     		str	r1, [sp, #4]
 471              		.loc 2 148 0
 472 0010 13D0     		beq	.L76
 473 0012 D0E90423 		ldrd	r2, r3, [r0, #16]
 474              		.loc 2 160 0
 475 0016 0AB1     		cbz	r2, .L67
 476              		.loc 2 161 0
 477 0018 5361     		str	r3, [r2, #20]
 478 001a 4369     		ldr	r3, [r0, #20]
 479              	.L67:
 480              		.loc 2 162 0
 481 001c 0BB1     		cbz	r3, .L66
 482              		.loc 2 163 0
 483 001e 0269     		ldr	r2, [r0, #16]
 484 0020 1A61     		str	r2, [r3, #16]
 485              	.L66:
 486              		.loc 2 165 0
 487 0022 FFF7FEFF 		bl	free
 488              	.LVL17:
 489              		.loc 2 167 0
 490 0026 0C4A     		ldr	r2, .L78+8
 491              		.loc 2 168 0
 492 0028 0198     		ldr	r0, [sp, #4]
 493              		.loc 2 167 0
 494 002a 1388     		ldrh	r3, [r2]
 495              		.loc 2 168 0
 496 002c 2168     		ldr	r1, [r4]
 497              		.loc 2 167 0
 498 002e 013B     		subs	r3, r3, #1
 499              		.loc 2 168 0
 500 0030 8842     		cmp	r0, r1
 501              		.loc 2 167 0
 502 0032 1380     		strh	r3, [r2]	@ movhi
 503              		.loc 2 168 0
 504 0034 09D1     		bne	.L77
 505 0036 02B0     		add	sp, sp, #8
 506              		.cfi_remember_state
 507              		.cfi_def_cfa_offset 8
 508              		@ sp needed
 509 0038 10BD     		pop	{r4, pc}
 510              	.LVL18:
 511              	.L76:
 512              		.cfi_restore_state
 513              		.loc 2 150 0
ARM GAS  C:\Users\MICHAE~1\AppData\Local\Temp\cc5ppSs7.s 			page 10


 514 003a 4269     		ldr	r2, [r0, #20]
 515 003c 1AB1     		cbz	r2, .L65
 516              		.loc 2 153 0
 517 003e 0021     		movs	r1, #0
 518              		.loc 2 152 0
 519 0040 1A60     		str	r2, [r3]
 520              		.loc 2 153 0
 521 0042 1161     		str	r1, [r2, #16]
 522 0044 EDE7     		b	.L66
 523              	.L65:
 524              		.loc 2 156 0
 525 0046 1A60     		str	r2, [r3]
 526 0048 EBE7     		b	.L66
 527              	.LVL19:
 528              	.L77:
 529              		.loc 2 168 0
 530 004a FFF7FEFF 		bl	__stack_chk_fail
 531              	.LVL20:
 532              	.L79:
 533 004e 00BF     		.align	2
 534              	.L78:
 535 0050 00000000 		.word	.LANCHOR3
 536 0054 00000000 		.word	__stack_chk_guard
 537 0058 00000000 		.word	.LANCHOR5
 538              		.cfi_endproc
 539              	.LFE261:
 540              		.size	destroy_wall, .-destroy_wall
 541              		.section	.text.destroy_all_walls,"ax",%progbits
 542              		.align	1
 543              		.p2align 4,,15
 544              		.global	destroy_all_walls
 545              		.syntax unified
 546              		.thumb
 547              		.thumb_func
 548              		.fpu fpv4-sp-d16
 549              		.type	destroy_all_walls, %function
 550              	destroy_all_walls:
 551              	.LFB262:
 552              		.loc 2 171 0
 553              		.cfi_startproc
 554              		@ args = 0, pretend = 0, frame = 8
 555              		@ frame_needed = 0, uses_anonymous_args = 0
 556 0000 30B5     		push	{r4, r5, lr}
 557              		.cfi_def_cfa_offset 12
 558              		.cfi_offset 4, -12
 559              		.cfi_offset 5, -8
 560              		.cfi_offset 14, -4
 561              		.loc 2 172 0
 562 0002 0A4C     		ldr	r4, .L90
 563              		.loc 2 171 0
 564 0004 0A4D     		ldr	r5, .L90+4
 565              		.loc 2 172 0
 566 0006 2068     		ldr	r0, [r4]
 567              		.loc 2 171 0
 568 0008 2B68     		ldr	r3, [r5]
 569 000a 83B0     		sub	sp, sp, #12
 570              		.cfi_def_cfa_offset 24
ARM GAS  C:\Users\MICHAE~1\AppData\Local\Temp\cc5ppSs7.s 			page 11


 571              		.loc 2 171 0
 572 000c 0193     		str	r3, [sp, #4]
 573              		.loc 2 172 0
 574 000e 20B1     		cbz	r0, .L80
 575              	.L82:
 576              		.loc 2 174 0
 577 0010 FFF7FEFF 		bl	destroy_wall
 578              	.LVL21:
 579              		.loc 2 172 0
 580 0014 2068     		ldr	r0, [r4]
 581 0016 0028     		cmp	r0, #0
 582 0018 FAD1     		bne	.L82
 583              	.L80:
 584              		.loc 2 176 0
 585 001a 019A     		ldr	r2, [sp, #4]
 586 001c 2B68     		ldr	r3, [r5]
 587 001e 9A42     		cmp	r2, r3
 588 0020 01D1     		bne	.L89
 589 0022 03B0     		add	sp, sp, #12
 590              		.cfi_remember_state
 591              		.cfi_def_cfa_offset 12
 592              		@ sp needed
 593 0024 30BD     		pop	{r4, r5, pc}
 594              	.L89:
 595              		.cfi_restore_state
 596 0026 FFF7FEFF 		bl	__stack_chk_fail
 597              	.LVL22:
 598              	.L91:
 599 002a 00BF     		.align	2
 600              	.L90:
 601 002c 00000000 		.word	.LANCHOR3
 602 0030 00000000 		.word	__stack_chk_guard
 603              		.cfi_endproc
 604              	.LFE262:
 605              		.size	destroy_all_walls, .-destroy_all_walls
 606              		.global	__aeabi_f2d
 607              		.global	__aeabi_dsub
 608              		.global	__aeabi_dmul
 609              		.global	__aeabi_d2iz
 610              		.global	__aeabi_i2d
 611              		.global	__aeabi_dadd
 612              		.section	.text.map_log_new_point,"ax",%progbits
 613              		.align	1
 614              		.p2align 4,,15
 615              		.global	map_log_new_point
 616              		.syntax unified
 617              		.thumb
 618              		.thumb_func
 619              		.fpu fpv4-sp-d16
 620              		.type	map_log_new_point, %function
 621              	map_log_new_point:
 622              	.LFB263:
 623              		.loc 2 181 0
 624              		.cfi_startproc
 625              		@ args = 0, pretend = 0, frame = 16
 626              		@ frame_needed = 0, uses_anonymous_args = 0
 627              	.LVL23:
ARM GAS  C:\Users\MICHAE~1\AppData\Local\Temp\cc5ppSs7.s 			page 12


 628 0000 2DE9F047 		push	{r4, r5, r6, r7, r8, r9, r10, lr}
 629              		.cfi_def_cfa_offset 32
 630              		.cfi_offset 4, -32
 631              		.cfi_offset 5, -28
 632              		.cfi_offset 6, -24
 633              		.cfi_offset 7, -20
 634              		.cfi_offset 8, -16
 635              		.cfi_offset 9, -12
 636              		.cfi_offset 10, -8
 637              		.cfi_offset 14, -4
 638 0004 2DED068B 		vpush.64	{d8, d9, d10}
 639              		.cfi_def_cfa_offset 56
 640              		.cfi_offset 80, -56
 641              		.cfi_offset 81, -52
 642              		.cfi_offset 82, -48
 643              		.cfi_offset 83, -44
 644              		.cfi_offset 84, -40
 645              		.cfi_offset 85, -36
 646 0008 8D4D     		ldr	r5, .L102
 647 000a 84B0     		sub	sp, sp, #16
 648              		.cfi_def_cfa_offset 72
 649              		.loc 2 181 0
 650 000c 2B68     		ldr	r3, [r5]
 651 000e 0393     		str	r3, [sp, #12]
 652 0010 0746     		mov	r7, r0
 653 0012 0E46     		mov	r6, r1
 654              		.loc 2 182 0
 655 0014 FFF7FEFF 		bl	new_point
 656              	.LVL24:
 657 0018 F31B     		subs	r3, r6, r7
 658              		.loc 2 188 0
 659 001a 07EE903A 		vmov	s15, r3	@ int
 660              		.loc 2 186 0
 661 001e D0F808A0 		ldr	r10, [r0, #8]
 662              		.loc 2 182 0
 663 0022 0446     		mov	r4, r0
 664              	.LVL25:
 665              		.loc 2 188 0
 666 0024 F8EEE77A 		vcvt.f32.s32	s15, s15
 667              		.loc 2 186 0
 668 0028 BAF1000F 		cmp	r10, #0
 669 002c 00F0BF80 		beq	.L99
 670              		.loc 2 203 0
 671 0030 DFED846A 		vldr.32	s13, .L102+4
 672 0034 9AED017A 		vldr.32	s14, [r10, #4]
 673 0038 87EEA68A 		vdiv.f32	s16, s15, s13
 674 003c 38EE078A 		vadd.f32	s16, s16, s14
 675 0040 80ED018A 		vstr.32	s16, [r0, #4]
 676 0044 18EE100A 		vmov	r0, s16
 677              	.LVL26:
 678 0048 FFF7FEFF 		bl	__aeabi_f2d
 679              	.LVL27:
 680 004c 41EC100B 		vmov	d0, r0, r1
 681 0050 41EC190B 		vmov	d9, r0, r1
 682 0054 FFF7FEFF 		bl	sin
 683              	.LVL28:
 684              		.loc 2 204 0
ARM GAS  C:\Users\MICHAE~1\AppData\Local\Temp\cc5ppSs7.s 			page 13


 685 0058 DAED018A 		vldr.32	s17, [r10, #4]
 686 005c B0EE40AA 		vmov.f32	s20, s0
 687 0060 F0EE60AA 		vmov.f32	s21, s1
 688 0064 B0EE490A 		vmov.f32	s0, s18
 689 0068 F0EE690A 		vmov.f32	s1, s19
 690 006c FFF7FEFF 		bl	cos
 691              	.LVL29:
 692 0070 B4EE688A 		vcmp.f32	s16, s17
 693 0074 F1EE10FA 		vmrs	APSR_nzcv, FPSCR
 694 0078 B0EE409A 		vmov.f32	s18, s0
 695 007c F0EE609A 		vmov.f32	s19, s1
 696 0080 38D1     		bne	.L100
 697              		.loc 2 212 0
 698 0082 3846     		mov	r0, r7
 699 0084 FFF7FEFF 		bl	__aeabi_i2d
 700              	.LVL30:
 701 0088 0646     		mov	r6, r0
 702 008a BAF90000 		ldrsh	r0, [r10]
 703 008e 0F46     		mov	r7, r1
 704 0090 FFF7FEFF 		bl	__aeabi_i2d
 705              	.LVL31:
 706 0094 53EC1A2B 		vmov	r2, r3, d10
 707 0098 8046     		mov	r8, r0
 708 009a 8946     		mov	r9, r1
 709 009c 3046     		mov	r0, r6
 710 009e 3946     		mov	r1, r7
 711 00a0 FFF7FEFF 		bl	__aeabi_dmul
 712              	.LVL32:
 713 00a4 0246     		mov	r2, r0
 714 00a6 0B46     		mov	r3, r1
 715 00a8 4046     		mov	r0, r8
 716 00aa 4946     		mov	r1, r9
 717 00ac FFF7FEFF 		bl	__aeabi_dsub
 718              	.LVL33:
 719 00b0 FFF7FEFF 		bl	__aeabi_d2iz
 720              	.LVL34:
 721 00b4 2080     		strh	r0, [r4]	@ movhi
 722              		.loc 2 213 0
 723 00b6 BAF90200 		ldrsh	r0, [r10, #2]
 724 00ba FFF7FEFF 		bl	__aeabi_i2d
 725              	.LVL35:
 726 00be 53EC192B 		vmov	r2, r3, d9
 727 00c2 8046     		mov	r8, r0
 728 00c4 8946     		mov	r9, r1
 729 00c6 3046     		mov	r0, r6
 730 00c8 3946     		mov	r1, r7
 731 00ca FFF7FEFF 		bl	__aeabi_dmul
 732              	.LVL36:
 733 00ce 0246     		mov	r2, r0
 734 00d0 0B46     		mov	r3, r1
 735 00d2 4046     		mov	r0, r8
 736 00d4 4946     		mov	r1, r9
 737 00d6 FFF7FEFF 		bl	__aeabi_dadd
 738              	.LVL37:
 739 00da FFF7FEFF 		bl	__aeabi_d2iz
 740              	.LVL38:
 741 00de 6080     		strh	r0, [r4, #2]	@ movhi
ARM GAS  C:\Users\MICHAE~1\AppData\Local\Temp\cc5ppSs7.s 			page 14


 742              	.LVL39:
 743              	.L92:
 744              		.loc 2 218 0
 745 00e0 039A     		ldr	r2, [sp, #12]
 746 00e2 2B68     		ldr	r3, [r5]
 747 00e4 9A42     		cmp	r2, r3
 748 00e6 40F0A880 		bne	.L101
 749 00ea 04B0     		add	sp, sp, #16
 750              		.cfi_remember_state
 751              		.cfi_def_cfa_offset 56
 752              		@ sp needed
 753 00ec BDEC068B 		vldm	sp!, {d8-d10}
 754              		.cfi_restore 84
 755              		.cfi_restore 85
 756              		.cfi_restore 82
 757              		.cfi_restore 83
 758              		.cfi_restore 80
 759              		.cfi_restore 81
 760              		.cfi_def_cfa_offset 32
 761 00f0 BDE8F087 		pop	{r4, r5, r6, r7, r8, r9, r10, pc}
 762              	.LVL40:
 763              	.L100:
 764              		.cfi_restore_state
 765              		.loc 2 206 0
 766 00f4 3E44     		add	r6, r6, r7
 767              	.LVL41:
 768 00f6 06EBD676 		add	r6, r6, r6, lsr #31
 769 00fa 7610     		asrs	r6, r6, #1
 770 00fc 07EE906A 		vmov	s15, r6	@ int
 771 0100 38EE688A 		vsub.f32	s16, s16, s17
 772 0104 F8EEE77A 		vcvt.f32.s32	s15, s15
 773              		.loc 2 207 0
 774 0108 C7EE887A 		vdiv.f32	s15, s15, s16
 775 010c 17EE900A 		vmov	r0, s15
 776 0110 FFF7FEFF 		bl	__aeabi_f2d
 777              	.LVL42:
 778 0114 8046     		mov	r8, r0
 779 0116 18EE900A 		vmov	r0, s17
 780 011a 8946     		mov	r9, r1
 781 011c FFF7FEFF 		bl	__aeabi_f2d
 782              	.LVL43:
 783 0120 41EC100B 		vmov	d0, r0, r1
 784 0124 FFF7FEFF 		bl	cos
 785              	.LVL44:
 786 0128 53EC102B 		vmov	r2, r3, d0
 787 012c BAF90000 		ldrsh	r0, [r10]
 788 0130 CDE90023 		strd	r2, [sp]
 789 0134 FFF7FEFF 		bl	__aeabi_i2d
 790              	.LVL45:
 791 0138 DDE90023 		ldrd	r2, [sp]
 792 013c 0646     		mov	r6, r0
 793 013e 0F46     		mov	r7, r1
 794 0140 51EC190B 		vmov	r0, r1, d9
 795 0144 FFF7FEFF 		bl	__aeabi_dsub
 796              	.LVL46:
 797 0148 4246     		mov	r2, r8
 798 014a 4B46     		mov	r3, r9
ARM GAS  C:\Users\MICHAE~1\AppData\Local\Temp\cc5ppSs7.s 			page 15


 799 014c FFF7FEFF 		bl	__aeabi_dmul
 800              	.LVL47:
 801 0150 0246     		mov	r2, r0
 802 0152 0B46     		mov	r3, r1
 803 0154 3046     		mov	r0, r6
 804 0156 3946     		mov	r1, r7
 805 0158 FFF7FEFF 		bl	__aeabi_dadd
 806              	.LVL48:
 807 015c FFF7FEFF 		bl	__aeabi_d2iz
 808              	.LVL49:
 809 0160 2080     		strh	r0, [r4]	@ movhi
 810              		.loc 2 208 0
 811 0162 DAF80400 		ldr	r0, [r10, #4]	@ float
 812 0166 FFF7FEFF 		bl	__aeabi_f2d
 813              	.LVL50:
 814 016a 41EC100B 		vmov	d0, r0, r1
 815 016e FFF7FEFF 		bl	sin
 816              	.LVL51:
 817 0172 53EC102B 		vmov	r2, r3, d0
 818 0176 BAF90200 		ldrsh	r0, [r10, #2]
 819 017a CDE90023 		strd	r2, [sp]
 820 017e FFF7FEFF 		bl	__aeabi_i2d
 821              	.LVL52:
 822 0182 DDE90023 		ldrd	r2, [sp]
 823 0186 0646     		mov	r6, r0
 824 0188 0F46     		mov	r7, r1
 825 018a 51EC1A0B 		vmov	r0, r1, d10
 826 018e FFF7FEFF 		bl	__aeabi_dsub
 827              	.LVL53:
 828 0192 4246     		mov	r2, r8
 829 0194 4B46     		mov	r3, r9
 830 0196 FFF7FEFF 		bl	__aeabi_dmul
 831              	.LVL54:
 832 019a 0246     		mov	r2, r0
 833 019c 0B46     		mov	r3, r1
 834 019e 3046     		mov	r0, r6
 835 01a0 3946     		mov	r1, r7
 836 01a2 FFF7FEFF 		bl	__aeabi_dadd
 837              	.LVL55:
 838 01a6 FFF7FEFF 		bl	__aeabi_d2iz
 839              	.LVL56:
 840 01aa 6080     		strh	r0, [r4, #2]	@ movhi
 841 01ac 98E7     		b	.L92
 842              	.LVL57:
 843              	.L99:
 844              		.loc 2 188 0
 845 01ae 9FED257A 		vldr.32	s14, .L102+4
 846 01b2 87EE878A 		vdiv.f32	s16, s15, s14
 847              		.loc 2 189 0
 848 01b6 B5EE408A 		vcmp.f32	s16, #0
 849 01ba F1EE10FA 		vmrs	APSR_nzcv, FPSCR
 850              		.loc 2 188 0
 851 01be 80ED018A 		vstr.32	s16, [r0, #4]
 852              		.loc 2 189 0
 853 01c2 36D0     		beq	.L94
 854              	.LVL58:
 855              		.loc 2 191 0
ARM GAS  C:\Users\MICHAE~1\AppData\Local\Temp\cc5ppSs7.s 			page 16


 856 01c4 3E44     		add	r6, r6, r7
 857              	.LVL59:
 858 01c6 06EBD676 		add	r6, r6, r6, lsr #31
 859 01ca 7610     		asrs	r6, r6, #1
 860 01cc 07EE906A 		vmov	s15, r6	@ int
 861 01d0 F8EEE77A 		vcvt.f32.s32	s15, s15
 862              		.loc 2 192 0
 863 01d4 C7EE887A 		vdiv.f32	s15, s15, s16
 864 01d8 17EE900A 		vmov	r0, s15
 865              	.LVL60:
 866 01dc FFF7FEFF 		bl	__aeabi_f2d
 867              	.LVL61:
 868 01e0 0646     		mov	r6, r0
 869 01e2 18EE100A 		vmov	r0, s16
 870 01e6 0F46     		mov	r7, r1
 871 01e8 FFF7FEFF 		bl	__aeabi_f2d
 872              	.LVL62:
 873 01ec 41EC100B 		vmov	d0, r0, r1
 874 01f0 41EC180B 		vmov	d8, r0, r1
 875 01f4 FFF7FEFF 		bl	cos
 876              	.LVL63:
 877 01f8 0022     		movs	r2, #0
 878 01fa 51EC100B 		vmov	r0, r1, d0
 879 01fe 124B     		ldr	r3, .L102+8
 880 0200 FFF7FEFF 		bl	__aeabi_dsub
 881              	.LVL64:
 882 0204 3246     		mov	r2, r6
 883 0206 3B46     		mov	r3, r7
 884 0208 FFF7FEFF 		bl	__aeabi_dmul
 885              	.LVL65:
 886 020c FFF7FEFF 		bl	__aeabi_d2iz
 887              	.LVL66:
 888              		.loc 2 193 0
 889 0210 B0EE480A 		vmov.f32	s0, s16
 890 0214 F0EE680A 		vmov.f32	s1, s17
 891              		.loc 2 192 0
 892 0218 2080     		strh	r0, [r4]	@ movhi
 893              		.loc 2 193 0
 894 021a FFF7FEFF 		bl	sin
 895              	.LVL67:
 896 021e 3046     		mov	r0, r6
 897 0220 53EC102B 		vmov	r2, r3, d0
 898 0224 3946     		mov	r1, r7
 899 0226 FFF7FEFF 		bl	__aeabi_dmul
 900              	.LVL68:
 901 022a FFF7FEFF 		bl	__aeabi_d2iz
 902              	.LVL69:
 903 022e 6080     		strh	r0, [r4, #2]	@ movhi
 904 0230 56E7     		b	.L92
 905              	.LVL70:
 906              	.L94:
 907              		.loc 2 197 0
 908 0232 A0F800A0 		strh	r10, [r0]	@ movhi
 909              		.loc 2 198 0
 910 0236 4780     		strh	r7, [r0, #2]	@ movhi
 911 0238 52E7     		b	.L92
 912              	.LVL71:
ARM GAS  C:\Users\MICHAE~1\AppData\Local\Temp\cc5ppSs7.s 			page 17


 913              	.L101:
 914              		.loc 2 218 0
 915 023a FFF7FEFF 		bl	__stack_chk_fail
 916              	.LVL72:
 917              	.L103:
 918 023e 00BF     		.align	2
 919              	.L102:
 920 0240 00000000 		.word	__stack_chk_guard
 921 0244 B113CB43 		.word	1137382321
 922 0248 0000F03F 		.word	1072693248
 923              		.cfi_endproc
 924              	.LFE263:
 925              		.size	map_log_new_point, .-map_log_new_point
 926              		.section	.text.map_log_wall_encounter,"ax",%progbits
 927              		.align	1
 928              		.p2align 4,,15
 929              		.global	map_log_wall_encounter
 930              		.syntax unified
 931              		.thumb
 932              		.thumb_func
 933              		.fpu fpv4-sp-d16
 934              		.type	map_log_wall_encounter, %function
 935              	map_log_wall_encounter:
 936              	.LFB264:
 937              		.loc 2 221 0
 938              		.cfi_startproc
 939              		@ args = 0, pretend = 0, frame = 8
 940              		@ frame_needed = 0, uses_anonymous_args = 0
 941 0000 2DE9F041 		push	{r4, r5, r6, r7, r8, lr}
 942              		.cfi_def_cfa_offset 24
 943              		.cfi_offset 4, -24
 944              		.cfi_offset 5, -20
 945              		.cfi_offset 6, -16
 946              		.cfi_offset 7, -12
 947              		.cfi_offset 8, -8
 948              		.cfi_offset 14, -4
 949              		.loc 2 222 0
 950 0004 114B     		ldr	r3, .L114
 951              	.LBB6:
 952              	.LBB7:
 953              		.loc 2 114 0
 954 0006 124C     		ldr	r4, .L114+4
 955              	.LBE7:
 956              	.LBE6:
 957              		.loc 2 221 0
 958 0008 124D     		ldr	r5, .L114+8
 959              		.loc 2 222 0
 960 000a 1B68     		ldr	r3, [r3]
 961              	.LBB10:
 962              	.LBB8:
 963              		.loc 2 114 0
 964 000c 2068     		ldr	r0, [r4]
 965              	.LBE8:
 966              	.LBE10:
 967              		.loc 2 221 0
 968 000e 2A68     		ldr	r2, [r5]
 969              		.loc 2 222 0
ARM GAS  C:\Users\MICHAE~1\AppData\Local\Temp\cc5ppSs7.s 			page 18


 970 0010 B3F90070 		ldrsh	r7, [r3]
 971              	.LVL73:
 972              		.loc 2 223 0
 973 0014 B3F90260 		ldrsh	r6, [r3, #2]
 974              	.LVL74:
 975              		.loc 2 224 0
 976 0018 D3F80480 		ldr	r8, [r3, #4]	@ float
 977              	.LVL75:
 978              		.loc 2 221 0
 979 001c 82B0     		sub	sp, sp, #8
 980              		.cfi_def_cfa_offset 32
 981              		.loc 2 221 0
 982 001e 0192     		str	r2, [sp, #4]
 983              	.LBB11:
 984              	.LBB9:
 985              		.loc 2 114 0
 986 0020 20B1     		cbz	r0, .L105
 987              	.L106:
 988              		.loc 2 116 0
 989 0022 FFF7FEFF 		bl	destroy_point
 990              	.LVL76:
 991              		.loc 2 114 0
 992 0026 2068     		ldr	r0, [r4]
 993 0028 0028     		cmp	r0, #0
 994 002a FAD1     		bne	.L106
 995              	.L105:
 996              	.LBE9:
 997              	.LBE11:
 998              		.loc 2 226 0
 999 002c FFF7FEFF 		bl	new_point
 1000              	.LVL77:
 1001              		.loc 2 227 0
 1002 0030 0780     		strh	r7, [r0]	@ movhi
 1003              		.loc 2 228 0
 1004 0032 4680     		strh	r6, [r0, #2]	@ movhi
 1005              		.loc 2 230 0
 1006 0034 019A     		ldr	r2, [sp, #4]
 1007 0036 2B68     		ldr	r3, [r5]
 1008              		.loc 2 229 0
 1009 0038 C0F80480 		str	r8, [r0, #4]	@ float
 1010              		.loc 2 230 0
 1011 003c 9A42     		cmp	r2, r3
 1012 003e 02D1     		bne	.L113
 1013 0040 02B0     		add	sp, sp, #8
 1014              		.cfi_remember_state
 1015              		.cfi_def_cfa_offset 24
 1016              		@ sp needed
 1017 0042 BDE8F081 		pop	{r4, r5, r6, r7, r8, pc}
 1018              	.LVL78:
 1019              	.L113:
 1020              		.cfi_restore_state
 1021 0046 FFF7FEFF 		bl	__stack_chk_fail
 1022              	.LVL79:
 1023              	.L115:
 1024 004a 00BF     		.align	2
 1025              	.L114:
 1026 004c 00000000 		.word	.LANCHOR1
ARM GAS  C:\Users\MICHAE~1\AppData\Local\Temp\cc5ppSs7.s 			page 19


 1027 0050 00000000 		.word	.LANCHOR0
 1028 0054 00000000 		.word	__stack_chk_guard
 1029              		.cfi_endproc
 1030              	.LFE264:
 1031              		.size	map_log_wall_encounter, .-map_log_wall_encounter
 1032              		.section	.text.map_log_wall_loss,"ax",%progbits
 1033              		.align	1
 1034              		.p2align 4,,15
 1035              		.global	map_log_wall_loss
 1036              		.syntax unified
 1037              		.thumb
 1038              		.thumb_func
 1039              		.fpu fpv4-sp-d16
 1040              		.type	map_log_wall_loss, %function
 1041              	map_log_wall_loss:
 1042              	.LFB265:
 1043              		.loc 2 233 0
 1044              		.cfi_startproc
 1045              		@ args = 0, pretend = 0, frame = 8
 1046              		@ frame_needed = 0, uses_anonymous_args = 0
 1047 0000 00B5     		push	{lr}
 1048              		.cfi_def_cfa_offset 4
 1049              		.cfi_offset 14, -4
 1050 0002 064B     		ldr	r3, .L120
 1051 0004 83B0     		sub	sp, sp, #12
 1052              		.cfi_def_cfa_offset 16
 1053              		.loc 2 233 0
 1054 0006 1A68     		ldr	r2, [r3]
 1055 0008 0192     		str	r2, [sp, #4]
 1056              		.loc 2 235 0
 1057 000a 019A     		ldr	r2, [sp, #4]
 1058 000c 1B68     		ldr	r3, [r3]
 1059 000e 9A42     		cmp	r2, r3
 1060 0010 02D1     		bne	.L119
 1061 0012 03B0     		add	sp, sp, #12
 1062              		.cfi_remember_state
 1063              		.cfi_def_cfa_offset 4
 1064              		@ sp needed
 1065 0014 5DF804FB 		ldr	pc, [sp], #4
 1066              	.L119:
 1067              		.cfi_restore_state
 1068 0018 FFF7FEFF 		bl	__stack_chk_fail
 1069              	.LVL80:
 1070              	.L121:
 1071              		.align	2
 1072              	.L120:
 1073 001c 00000000 		.word	__stack_chk_guard
 1074              		.cfi_endproc
 1075              	.LFE265:
 1076              		.size	map_log_wall_loss, .-map_log_wall_loss
 1077              		.section	.text.map_log_corner,"ax",%progbits
 1078              		.align	1
 1079              		.p2align 4,,15
 1080              		.global	map_log_corner
 1081              		.syntax unified
 1082              		.thumb
 1083              		.thumb_func
ARM GAS  C:\Users\MICHAE~1\AppData\Local\Temp\cc5ppSs7.s 			page 20


 1084              		.fpu fpv4-sp-d16
 1085              		.type	map_log_corner, %function
 1086              	map_log_corner:
 1087              	.LFB266:
 1088              		.loc 2 238 0
 1089              		.cfi_startproc
 1090              		@ args = 0, pretend = 0, frame = 8
 1091              		@ frame_needed = 0, uses_anonymous_args = 0
 1092 0000 2DE9F041 		push	{r4, r5, r6, r7, r8, lr}
 1093              		.cfi_def_cfa_offset 24
 1094              		.cfi_offset 4, -24
 1095              		.cfi_offset 5, -20
 1096              		.cfi_offset 6, -16
 1097              		.cfi_offset 7, -12
 1098              		.cfi_offset 8, -8
 1099              		.cfi_offset 14, -4
 1100              		.loc 2 243 0
 1101 0004 DFF80081 		ldr	r8, .L136+16
 1102              		.loc 2 238 0
 1103 0008 3B4E     		ldr	r6, .L136
 1104              		.loc 2 243 0
 1105 000a D8F80020 		ldr	r2, [r8]
 1106              		.loc 2 247 0
 1107 000e 3B4D     		ldr	r5, .L136+4
 1108              		.loc 2 238 0
 1109 0010 3368     		ldr	r3, [r6]
 1110              		.loc 2 243 0
 1111 0012 5768     		ldr	r7, [r2, #4]	@ float
 1112              		.loc 2 238 0
 1113 0014 82B0     		sub	sp, sp, #8
 1114              		.cfi_def_cfa_offset 32
 1115              		.loc 2 238 0
 1116 0016 0193     		str	r3, [sp, #4]
 1117              	.LVL81:
 1118              		.loc 2 245 0
 1119 0018 FFF7FEFF 		bl	new_wall
 1120              	.LVL82:
 1121              		.loc 2 247 0
 1122 001c 2B68     		ldr	r3, [r5]
 1123              		.loc 2 249 0
 1124 001e D8F80020 		ldr	r2, [r8]
 1125              		.loc 2 247 0
 1126 0022 B3F90010 		ldrsh	r1, [r3]
 1127 0026 0181     		strh	r1, [r0, #8]	@ movhi
 1128              		.loc 2 248 0
 1129 0028 B3F90210 		ldrsh	r1, [r3, #2]
 1130 002c 4181     		strh	r1, [r0, #10]	@ movhi
 1131              		.loc 2 249 0
 1132 002e B2F90010 		ldrsh	r1, [r2]
 1133              		.loc 2 242 0
 1134 0032 9FED336A 		vldr.32	s12, .L136+8
 1135              		.loc 2 249 0
 1136 0036 8181     		strh	r1, [r0, #12]	@ movhi
 1137              		.loc 2 250 0
 1138 0038 B2F90220 		ldrsh	r2, [r2, #2]
 1139 003c C281     		strh	r2, [r0, #14]	@ movhi
 1140              		.loc 2 245 0
ARM GAS  C:\Users\MICHAE~1\AppData\Local\Temp\cc5ppSs7.s 			page 21


 1141 003e 0446     		mov	r4, r0
 1142              	.LVL83:
 1143              		.loc 2 241 0
 1144 0040 B0EE465A 		vmov.f32	s10, s12
 1145              		.loc 2 250 0
 1146 0044 1A46     		mov	r2, r3
 1147              	.LVL84:
 1148              	.L123:
 1149              		.loc 2 255 0 discriminator 3
 1150 0046 B2F90010 		ldrsh	r1, [r2]
 1151 004a 07EE101A 		vmov	s14, r1	@ int
 1152              		.loc 2 256 0 discriminator 3
 1153 004e B2F90210 		ldrsh	r1, [r2, #2]
 1154              		.loc 2 253 0 discriminator 3
 1155 0052 D268     		ldr	r2, [r2, #12]
 1156              	.LVL85:
 1157              		.loc 2 256 0 discriminator 3
 1158 0054 07EE901A 		vmov	s15, r1	@ int
 1159              		.loc 2 255 0 discriminator 3
 1160 0058 B8EEC77A 		vcvt.f32.s32	s14, s14
 1161              		.loc 2 256 0 discriminator 3
 1162 005c F8EEE77A 		vcvt.f32.s32	s15, s15
 1163              		.loc 2 255 0 discriminator 3
 1164 0060 35EE075A 		vadd.f32	s10, s10, s14
 1165              	.LVL86:
 1166              		.loc 2 256 0 discriminator 3
 1167 0064 36EE276A 		vadd.f32	s12, s12, s15
 1168              	.LVL87:
 1169              		.loc 2 253 0 discriminator 3
 1170 0068 002A     		cmp	r2, #0
 1171 006a ECD1     		bne	.L123
 1172              		.loc 2 258 0
 1173 006c 254A     		ldr	r2, .L136+12
 1174              	.LVL88:
 1175              		.loc 2 240 0
 1176 006e DFED246A 		vldr.32	s13, .L136+8
 1177              		.loc 2 258 0
 1178 0072 1288     		ldrh	r2, [r2]
 1179 0074 07EE902A 		vmov	s15, r2	@ int
 1180 0078 F8EEE77A 		vcvt.f32.s32	s15, s15
 1181              		.loc 2 239 0
 1182 007c F0EE665A 		vmov.f32	s11, s13
 1183              		.loc 2 258 0
 1184 0080 C5EE274A 		vdiv.f32	s9, s10, s15
 1185              	.LVL89:
 1186              		.loc 2 259 0
 1187 0084 86EE275A 		vdiv.f32	s10, s12, s15
 1188              	.LVL90:
 1189              	.L124:
 1190              		.loc 2 263 0 discriminator 3
 1191 0088 B3F90020 		ldrsh	r2, [r3]
 1192 008c 07EE902A 		vmov	s15, r2	@ int
 1193 0090 B3F90220 		ldrsh	r2, [r3, #2]
 1194              		.loc 2 261 0 discriminator 3
 1195 0094 DB68     		ldr	r3, [r3, #12]
 1196              	.LVL91:
 1197              		.loc 2 263 0 discriminator 3
ARM GAS  C:\Users\MICHAE~1\AppData\Local\Temp\cc5ppSs7.s 			page 22


 1198 0096 07EE102A 		vmov	s14, r2	@ int
 1199 009a F8EEE77A 		vcvt.f32.s32	s15, s15
 1200 009e B8EEC77A 		vcvt.f32.s32	s14, s14
 1201 00a2 77EEE47A 		vsub.f32	s15, s15, s9
 1202              		.loc 2 264 0 discriminator 3
 1203 00a6 E7EEA76A 		vfma.f32	s13, s15, s15
 1204              	.LVL92:
 1205              		.loc 2 263 0 discriminator 3
 1206 00aa E7EE275A 		vfma.f32	s11, s14, s15
 1207              	.LVL93:
 1208              		.loc 2 261 0 discriminator 3
 1209 00ae 002B     		cmp	r3, #0
 1210 00b0 EAD1     		bne	.L124
 1211              		.loc 2 266 0
 1212 00b2 85EEA67A 		vdiv.f32	s14, s11, s13
 1213              		.loc 2 267 0
 1214 00b6 F0EE457A 		vmov.f32	s15, s10
 1215 00ba E7EE647A 		vfms.f32	s15, s14, s9
 1216              		.loc 2 266 0
 1217 00be 84ED017A 		vstr.32	s14, [r4, #4]
 1218              		.loc 2 267 0
 1219 00c2 C4ED007A 		vstr.32	s15, [r4]
 1220              	.LBB12:
 1221              	.LBB13:
 1222              		.loc 2 114 0
 1223 00c6 2868     		ldr	r0, [r5]
 1224              	.LVL94:
 1225 00c8 20B1     		cbz	r0, .L125
 1226              	.LVL95:
 1227              	.L126:
 1228              		.loc 2 116 0
 1229 00ca FFF7FEFF 		bl	destroy_point
 1230              	.LVL96:
 1231              		.loc 2 114 0
 1232 00ce 2868     		ldr	r0, [r5]
 1233 00d0 0028     		cmp	r0, #0
 1234 00d2 FAD1     		bne	.L126
 1235              	.L125:
 1236              	.LBE13:
 1237              	.LBE12:
 1238              		.loc 2 270 0
 1239 00d4 FFF7FEFF 		bl	new_point
 1240              	.LVL97:
 1241              		.loc 2 271 0
 1242 00d8 B4F90C30 		ldrsh	r3, [r4, #12]
 1243 00dc 0380     		strh	r3, [r0]	@ movhi
 1244              		.loc 2 272 0
 1245 00de B4F90E30 		ldrsh	r3, [r4, #14]
 1246 00e2 4380     		strh	r3, [r0, #2]	@ movhi
 1247              		.loc 2 274 0
 1248 00e4 019A     		ldr	r2, [sp, #4]
 1249 00e6 3368     		ldr	r3, [r6]
 1250              		.loc 2 273 0
 1251 00e8 4760     		str	r7, [r0, #4]	@ float
 1252              		.loc 2 274 0
 1253 00ea 9A42     		cmp	r2, r3
 1254 00ec 02D1     		bne	.L135
ARM GAS  C:\Users\MICHAE~1\AppData\Local\Temp\cc5ppSs7.s 			page 23


 1255 00ee 02B0     		add	sp, sp, #8
 1256              		.cfi_remember_state
 1257              		.cfi_def_cfa_offset 24
 1258              		@ sp needed
 1259 00f0 BDE8F081 		pop	{r4, r5, r6, r7, r8, pc}
 1260              	.LVL98:
 1261              	.L135:
 1262              		.cfi_restore_state
 1263 00f4 FFF7FEFF 		bl	__stack_chk_fail
 1264              	.LVL99:
 1265              	.L137:
 1266              		.align	2
 1267              	.L136:
 1268 00f8 00000000 		.word	__stack_chk_guard
 1269 00fc 00000000 		.word	.LANCHOR0
 1270 0100 00000000 		.word	0
 1271 0104 00000000 		.word	.LANCHOR2
 1272 0108 00000000 		.word	.LANCHOR1
 1273              		.cfi_endproc
 1274              	.LFE266:
 1275              		.size	map_log_corner, .-map_log_corner
 1276              		.section	.text.map_display_all_points,"ax",%progbits
 1277              		.align	1
 1278              		.p2align 4,,15
 1279              		.global	map_display_all_points
 1280              		.syntax unified
 1281              		.thumb
 1282              		.thumb_func
 1283              		.fpu fpv4-sp-d16
 1284              		.type	map_display_all_points, %function
 1285              	map_display_all_points:
 1286              	.LFB267:
 1287              		.loc 2 280 0
 1288              		.cfi_startproc
 1289              		@ args = 0, pretend = 0, frame = 8
 1290              		@ frame_needed = 0, uses_anonymous_args = 0
 1291 0000 2DE9F043 		push	{r4, r5, r6, r7, r8, r9, lr}
 1292              		.cfi_def_cfa_offset 28
 1293              		.cfi_offset 4, -28
 1294              		.cfi_offset 5, -24
 1295              		.cfi_offset 6, -20
 1296              		.cfi_offset 7, -16
 1297              		.cfi_offset 8, -12
 1298              		.cfi_offset 9, -8
 1299              		.cfi_offset 14, -4
 1300              		.loc 2 281 0
 1301 0004 274B     		ldr	r3, .L153
 1302              		.loc 2 280 0
 1303 0006 DFF8B490 		ldr	r9, .L153+24
 1304              		.loc 2 281 0
 1305 000a 1C68     		ldr	r4, [r3]
 1306              	.LVL100:
 1307              		.loc 2 280 0
 1308 000c D9F80030 		ldr	r3, [r9]
 1309 0010 85B0     		sub	sp, sp, #20
 1310              		.cfi_def_cfa_offset 48
 1311              		.loc 2 280 0
ARM GAS  C:\Users\MICHAE~1\AppData\Local\Temp\cc5ppSs7.s 			page 24


 1312 0012 0393     		str	r3, [sp, #12]
 1313              		.loc 2 282 0
 1314 0014 002C     		cmp	r4, #0
 1315 0016 36D0     		beq	.L152
 1316              		.loc 2 287 0
 1317 0018 2349     		ldr	r1, .L153+4
 1318 001a 2448     		ldr	r0, .L153+8
 1319 001c FFF7FEFF 		bl	chprintf.constprop.0
 1320              	.LVL101:
 1321              		.loc 2 288 0
 1322 0020 E368     		ldr	r3, [r4, #12]
 1323 0022 ABB1     		cbz	r3, .L141
 1324              		.loc 2 290 0
 1325 0024 DFF88880 		ldr	r8, .L153+12
 1326 0028 204F     		ldr	r7, .L153+8
 1327              	.L142:
 1328 002a 6068     		ldr	r0, [r4, #4]	@ float
 1329 002c B4F90260 		ldrsh	r6, [r4, #2]
 1330 0030 B4F90050 		ldrsh	r5, [r4]
 1331 0034 FFF7FEFF 		bl	__aeabi_f2d
 1332              	.LVL102:
 1333 0038 3346     		mov	r3, r6
 1334 003a CDE90001 		strd	r0, [sp]
 1335 003e 2A46     		mov	r2, r5
 1336 0040 4146     		mov	r1, r8
 1337 0042 3846     		mov	r0, r7
 1338 0044 FFF7FEFF 		bl	chprintf.constprop.0
 1339              	.LVL103:
 1340              		.loc 2 291 0
 1341 0048 E468     		ldr	r4, [r4, #12]
 1342              	.LVL104:
 1343              		.loc 2 288 0
 1344 004a E368     		ldr	r3, [r4, #12]
 1345 004c 002B     		cmp	r3, #0
 1346 004e ECD1     		bne	.L142
 1347              	.L141:
 1348              		.loc 2 293 0
 1349 0050 6068     		ldr	r0, [r4, #4]	@ float
 1350 0052 B4F90250 		ldrsh	r5, [r4, #2]
 1351 0056 B4F90040 		ldrsh	r4, [r4]
 1352              	.LVL105:
 1353 005a FFF7FEFF 		bl	__aeabi_f2d
 1354              	.LVL106:
 1355 005e 2B46     		mov	r3, r5
 1356 0060 CDE90001 		strd	r0, [sp]
 1357 0064 2246     		mov	r2, r4
 1358 0066 1249     		ldr	r1, .L153+12
 1359 0068 1048     		ldr	r0, .L153+8
 1360 006a FFF7FEFF 		bl	chprintf.constprop.0
 1361              	.LVL107:
 1362              		.loc 2 294 0
 1363 006e 039A     		ldr	r2, [sp, #12]
 1364 0070 D9F80030 		ldr	r3, [r9]
 1365 0074 9A42     		cmp	r2, r3
 1366 0076 12D1     		bne	.L151
 1367 0078 0E49     		ldr	r1, .L153+16
 1368 007a 0C48     		ldr	r0, .L153+8
ARM GAS  C:\Users\MICHAE~1\AppData\Local\Temp\cc5ppSs7.s 			page 25


 1369              		.loc 2 295 0
 1370 007c 05B0     		add	sp, sp, #20
 1371              		.cfi_remember_state
 1372              		.cfi_def_cfa_offset 28
 1373              		@ sp needed
 1374 007e BDE8F043 		pop	{r4, r5, r6, r7, r8, r9, lr}
 1375              		.cfi_restore 14
 1376              		.cfi_restore 9
 1377              		.cfi_restore 8
 1378              		.cfi_restore 7
 1379              		.cfi_restore 6
 1380              		.cfi_restore 5
 1381              		.cfi_restore 4
 1382              		.cfi_def_cfa_offset 0
 1383              		.loc 2 294 0
 1384 0082 FFF7FEBF 		b	chprintf.constprop.0
 1385              	.LVL108:
 1386              	.L152:
 1387              		.cfi_restore_state
 1388              		.loc 2 284 0
 1389 0086 039A     		ldr	r2, [sp, #12]
 1390 0088 D9F80030 		ldr	r3, [r9]
 1391 008c 9A42     		cmp	r2, r3
 1392 008e 06D1     		bne	.L151
 1393 0090 0949     		ldr	r1, .L153+20
 1394              		.loc 2 294 0
 1395 0092 0648     		ldr	r0, .L153+8
 1396              		.loc 2 295 0
 1397 0094 05B0     		add	sp, sp, #20
 1398              		.cfi_remember_state
 1399              		.cfi_def_cfa_offset 28
 1400              		@ sp needed
 1401 0096 BDE8F043 		pop	{r4, r5, r6, r7, r8, r9, lr}
 1402              		.cfi_restore 14
 1403              		.cfi_restore 9
 1404              		.cfi_restore 8
 1405              		.cfi_restore 7
 1406              		.cfi_restore 6
 1407              		.cfi_restore 5
 1408              		.cfi_restore 4
 1409              		.cfi_def_cfa_offset 0
 1410              	.LVL109:
 1411              		.loc 2 294 0
 1412 009a FFF7FEBF 		b	chprintf.constprop.0
 1413              	.LVL110:
 1414              	.L151:
 1415              		.cfi_restore_state
 1416 009e FFF7FEFF 		bl	__stack_chk_fail
 1417              	.LVL111:
 1418              	.L154:
 1419 00a2 00BF     		.align	2
 1420              	.L153:
 1421 00a4 00000000 		.word	.LANCHOR0
 1422 00a8 18000000 		.word	.LC1
 1423 00ac 00000000 		.word	SD3
 1424 00b0 2C000000 		.word	.LC2
 1425 00b4 4C000000 		.word	.LC3
ARM GAS  C:\Users\MICHAE~1\AppData\Local\Temp\cc5ppSs7.s 			page 26


 1426 00b8 00000000 		.word	.LC0
 1427 00bc 00000000 		.word	__stack_chk_guard
 1428              		.cfi_endproc
 1429              	.LFE267:
 1430              		.size	map_display_all_points, .-map_display_all_points
 1431              		.section	.text.map_send_all_points_to_computer,"ax",%progbits
 1432              		.align	1
 1433              		.p2align 4,,15
 1434              		.global	map_send_all_points_to_computer
 1435              		.syntax unified
 1436              		.thumb
 1437              		.thumb_func
 1438              		.fpu fpv4-sp-d16
 1439              		.type	map_send_all_points_to_computer, %function
 1440              	map_send_all_points_to_computer:
 1441              	.LFB268:
 1442              		.loc 2 298 0
 1443              		.cfi_startproc
 1444              		@ args = 0, pretend = 0, frame = 8
 1445              		@ frame_needed = 0, uses_anonymous_args = 0
 1446 0000 70B5     		push	{r4, r5, r6, lr}
 1447              		.cfi_def_cfa_offset 16
 1448              		.cfi_offset 4, -16
 1449              		.cfi_offset 5, -12
 1450              		.cfi_offset 6, -8
 1451              		.cfi_offset 14, -4
 1452              		.loc 2 303 0
 1453 0002 1D4D     		ldr	r5, .L170
 1454              		.loc 2 299 0
 1455 0004 1D4A     		ldr	r2, .L170+4
 1456              		.loc 2 303 0
 1457 0006 2B88     		ldrh	r3, [r5]
 1458              		.loc 2 298 0
 1459 0008 1D4E     		ldr	r6, .L170+8
 1460              		.loc 2 299 0
 1461 000a 1468     		ldr	r4, [r2]
 1462              	.LVL112:
 1463              		.loc 2 298 0
 1464 000c 3268     		ldr	r2, [r6]
 1465 000e 82B0     		sub	sp, sp, #8
 1466              		.cfi_def_cfa_offset 24
 1467              		.loc 2 303 0
 1468 0010 03EB8303 		add	r3, r3, r3, lsl #2
 1469              		.loc 2 298 0
 1470 0014 0192     		str	r2, [sp, #4]
 1471              		.loc 2 303 0
 1472 0016 ADF80230 		strh	r3, [sp, #2]	@ movhi
 1473              		.loc 2 305 0
 1474 001a 2CB3     		cbz	r4, .L155
 1475              		.loc 2 310 0
 1476 001c 1948     		ldr	r0, .L170+12
 1477 001e FFF7FEFF 		bl	send_char_to_computer
 1478              	.LVL113:
 1479              		.loc 2 311 0
 1480 0022 0DF10200 		add	r0, sp, #2
 1481 0026 FFF7FEFF 		bl	send_int16_to_computer
 1482              	.LVL114:
ARM GAS  C:\Users\MICHAE~1\AppData\Local\Temp\cc5ppSs7.s 			page 27


 1483              		.loc 2 312 0
 1484 002a 2846     		mov	r0, r5
 1485 002c FFF7FEFF 		bl	send_int16_to_computer
 1486              	.LVL115:
 1487              		.loc 2 313 0
 1488 0030 1548     		ldr	r0, .L170+16
 1489 0032 FFF7FEFF 		bl	send_int16_to_computer
 1490              	.LVL116:
 1491              		.loc 2 314 0
 1492 0036 E368     		ldr	r3, [r4, #12]
 1493 0038 6BB1     		cbz	r3, .L157
 1494              		.loc 2 316 0
 1495 003a 144D     		ldr	r5, .L170+20
 1496              	.L158:
 1497 003c 2846     		mov	r0, r5
 1498 003e FFF7FEFF 		bl	send_char_to_computer
 1499              	.LVL117:
 1500              		.loc 2 317 0
 1501 0042 2046     		mov	r0, r4
 1502 0044 FFF7FEFF 		bl	send_int16_to_computer
 1503              	.LVL118:
 1504              		.loc 2 318 0
 1505 0048 A01C     		adds	r0, r4, #2
 1506 004a FFF7FEFF 		bl	send_int16_to_computer
 1507              	.LVL119:
 1508              		.loc 2 319 0
 1509 004e E468     		ldr	r4, [r4, #12]
 1510              	.LVL120:
 1511              		.loc 2 314 0
 1512 0050 E368     		ldr	r3, [r4, #12]
 1513 0052 002B     		cmp	r3, #0
 1514 0054 F2D1     		bne	.L158
 1515              	.L157:
 1516              		.loc 2 321 0
 1517 0056 0D48     		ldr	r0, .L170+20
 1518 0058 FFF7FEFF 		bl	send_char_to_computer
 1519              	.LVL121:
 1520              		.loc 2 322 0
 1521 005c 2046     		mov	r0, r4
 1522 005e FFF7FEFF 		bl	send_int16_to_computer
 1523              	.LVL122:
 1524              		.loc 2 323 0
 1525 0062 A01C     		adds	r0, r4, #2
 1526 0064 FFF7FEFF 		bl	send_int16_to_computer
 1527              	.LVL123:
 1528              	.L155:
 1529              		.loc 2 325 0
 1530 0068 019A     		ldr	r2, [sp, #4]
 1531 006a 3368     		ldr	r3, [r6]
 1532 006c 9A42     		cmp	r2, r3
 1533 006e 01D1     		bne	.L169
 1534 0070 02B0     		add	sp, sp, #8
 1535              		.cfi_remember_state
 1536              		.cfi_def_cfa_offset 16
 1537              		@ sp needed
 1538 0072 70BD     		pop	{r4, r5, r6, pc}
 1539              	.LVL124:
ARM GAS  C:\Users\MICHAE~1\AppData\Local\Temp\cc5ppSs7.s 			page 28


 1540              	.L169:
 1541              		.cfi_restore_state
 1542 0074 FFF7FEFF 		bl	__stack_chk_fail
 1543              	.LVL125:
 1544              	.L171:
 1545              		.align	2
 1546              	.L170:
 1547 0078 00000000 		.word	.LANCHOR2
 1548 007c 00000000 		.word	.LANCHOR0
 1549 0080 00000000 		.word	__stack_chk_guard
 1550 0084 00000000 		.word	.LANCHOR6
 1551 0088 00000000 		.word	.LANCHOR7
 1552 008c 00000000 		.word	.LANCHOR8
 1553              		.cfi_endproc
 1554              	.LFE268:
 1555              		.size	map_send_all_points_to_computer, .-map_send_all_points_to_computer
 1556              		.section	.text.map_send_all_walls_to_computer,"ax",%progbits
 1557              		.align	1
 1558              		.p2align 4,,15
 1559              		.global	map_send_all_walls_to_computer
 1560              		.syntax unified
 1561              		.thumb
 1562              		.thumb_func
 1563              		.fpu fpv4-sp-d16
 1564              		.type	map_send_all_walls_to_computer, %function
 1565              	map_send_all_walls_to_computer:
 1566              	.LFB269:
 1567              		.loc 2 328 0
 1568              		.cfi_startproc
 1569              		@ args = 0, pretend = 0, frame = 8
 1570              		@ frame_needed = 0, uses_anonymous_args = 0
 1571 0000 70B5     		push	{r4, r5, r6, lr}
 1572              		.cfi_def_cfa_offset 16
 1573              		.cfi_offset 4, -16
 1574              		.cfi_offset 5, -12
 1575              		.cfi_offset 6, -8
 1576              		.cfi_offset 14, -4
 1577              		.loc 2 333 0
 1578 0002 264D     		ldr	r5, .L187
 1579              		.loc 2 329 0
 1580 0004 264A     		ldr	r2, .L187+4
 1581              		.loc 2 328 0
 1582 0006 274E     		ldr	r6, .L187+8
 1583              		.loc 2 333 0
 1584 0008 2B88     		ldrh	r3, [r5]
 1585              		.loc 2 329 0
 1586 000a 1468     		ldr	r4, [r2]
 1587              	.LVL126:
 1588              		.loc 2 328 0
 1589 000c 3268     		ldr	r2, [r6]
 1590 000e 82B0     		sub	sp, sp, #8
 1591              		.cfi_def_cfa_offset 24
 1592              		.loc 2 328 0
 1593 0010 0192     		str	r2, [sp, #4]
 1594              		.loc 2 333 0
 1595 0012 03EB4302 		add	r2, r3, r3, lsl #1
 1596 0016 03EB8203 		add	r3, r3, r2, lsl #2
ARM GAS  C:\Users\MICHAE~1\AppData\Local\Temp\cc5ppSs7.s 			page 29


 1597 001a ADF80230 		strh	r3, [sp, #2]	@ movhi
 1598              		.loc 2 335 0
 1599 001e ACB3     		cbz	r4, .L172
 1600              		.loc 2 340 0
 1601 0020 2148     		ldr	r0, .L187+12
 1602 0022 FFF7FEFF 		bl	send_char_to_computer
 1603              	.LVL127:
 1604              		.loc 2 341 0
 1605 0026 0DF10200 		add	r0, sp, #2
 1606 002a FFF7FEFF 		bl	send_int16_to_computer
 1607              	.LVL128:
 1608              		.loc 2 342 0
 1609 002e 1F48     		ldr	r0, .L187+16
 1610 0030 FFF7FEFF 		bl	send_int16_to_computer
 1611              	.LVL129:
 1612              		.loc 2 343 0
 1613 0034 2846     		mov	r0, r5
 1614 0036 FFF7FEFF 		bl	send_int16_to_computer
 1615              	.LVL130:
 1616              		.loc 2 344 0
 1617 003a 6369     		ldr	r3, [r4, #20]
 1618 003c ABB1     		cbz	r3, .L174
 1619              		.loc 2 346 0
 1620 003e 1C4D     		ldr	r5, .L187+20
 1621              	.L175:
 1622 0040 2846     		mov	r0, r5
 1623 0042 FFF7FEFF 		bl	send_char_to_computer
 1624              	.LVL131:
 1625              		.loc 2 347 0
 1626 0046 2046     		mov	r0, r4
 1627 0048 FFF7FEFF 		bl	send_float_to_computer
 1628              	.LVL132:
 1629              		.loc 2 348 0
 1630 004c 201D     		adds	r0, r4, #4
 1631 004e FFF7FEFF 		bl	send_float_to_computer
 1632              	.LVL133:
 1633              		.loc 2 349 0
 1634 0052 04F10C00 		add	r0, r4, #12
 1635 0056 FFF7FEFF 		bl	send_int16_to_computer
 1636              	.LVL134:
 1637              		.loc 2 350 0
 1638 005a 04F10E00 		add	r0, r4, #14
 1639 005e FFF7FEFF 		bl	send_int16_to_computer
 1640              	.LVL135:
 1641              		.loc 2 351 0
 1642 0062 6469     		ldr	r4, [r4, #20]
 1643              	.LVL136:
 1644              		.loc 2 344 0
 1645 0064 6369     		ldr	r3, [r4, #20]
 1646 0066 002B     		cmp	r3, #0
 1647 0068 EAD1     		bne	.L175
 1648              	.L174:
 1649              		.loc 2 353 0
 1650 006a 1148     		ldr	r0, .L187+20
 1651 006c FFF7FEFF 		bl	send_char_to_computer
 1652              	.LVL137:
 1653              		.loc 2 354 0
ARM GAS  C:\Users\MICHAE~1\AppData\Local\Temp\cc5ppSs7.s 			page 30


 1654 0070 2046     		mov	r0, r4
 1655 0072 FFF7FEFF 		bl	send_float_to_computer
 1656              	.LVL138:
 1657              		.loc 2 355 0
 1658 0076 201D     		adds	r0, r4, #4
 1659 0078 FFF7FEFF 		bl	send_float_to_computer
 1660              	.LVL139:
 1661              		.loc 2 356 0
 1662 007c 04F10C00 		add	r0, r4, #12
 1663 0080 FFF7FEFF 		bl	send_int16_to_computer
 1664              	.LVL140:
 1665              		.loc 2 357 0
 1666 0084 04F10E00 		add	r0, r4, #14
 1667 0088 FFF7FEFF 		bl	send_int16_to_computer
 1668              	.LVL141:
 1669              	.L172:
 1670              		.loc 2 359 0
 1671 008c 019A     		ldr	r2, [sp, #4]
 1672 008e 3368     		ldr	r3, [r6]
 1673 0090 9A42     		cmp	r2, r3
 1674 0092 01D1     		bne	.L186
 1675 0094 02B0     		add	sp, sp, #8
 1676              		.cfi_remember_state
 1677              		.cfi_def_cfa_offset 16
 1678              		@ sp needed
 1679 0096 70BD     		pop	{r4, r5, r6, pc}
 1680              	.LVL142:
 1681              	.L186:
 1682              		.cfi_restore_state
 1683 0098 FFF7FEFF 		bl	__stack_chk_fail
 1684              	.LVL143:
 1685              	.L188:
 1686              		.align	2
 1687              	.L187:
 1688 009c 00000000 		.word	.LANCHOR5
 1689 00a0 00000000 		.word	.LANCHOR3
 1690 00a4 00000000 		.word	__stack_chk_guard
 1691 00a8 00000000 		.word	.LANCHOR9
 1692 00ac 00000000 		.word	.LANCHOR10
 1693 00b0 00000000 		.word	.LANCHOR11
 1694              		.cfi_endproc
 1695              	.LFE269:
 1696              		.size	map_send_all_walls_to_computer, .-map_send_all_walls_to_computer
 1697              		.section	.text.map_send_all_data_to_computer,"ax",%progbits
 1698              		.align	1
 1699              		.p2align 4,,15
 1700              		.global	map_send_all_data_to_computer
 1701              		.syntax unified
 1702              		.thumb
 1703              		.thumb_func
 1704              		.fpu fpv4-sp-d16
 1705              		.type	map_send_all_data_to_computer, %function
 1706              	map_send_all_data_to_computer:
 1707              	.LFB270:
 1708              		.loc 2 363 0
 1709              		.cfi_startproc
 1710              		@ args = 0, pretend = 0, frame = 8
ARM GAS  C:\Users\MICHAE~1\AppData\Local\Temp\cc5ppSs7.s 			page 31


 1711              		@ frame_needed = 0, uses_anonymous_args = 0
 1712 0000 F0B5     		push	{r4, r5, r6, r7, lr}
 1713              		.cfi_def_cfa_offset 20
 1714              		.cfi_offset 4, -20
 1715              		.cfi_offset 5, -16
 1716              		.cfi_offset 6, -12
 1717              		.cfi_offset 7, -8
 1718              		.cfi_offset 14, -4
 1719              		.loc 2 369 0
 1720 0002 384A     		ldr	r2, .L212
 1721 0004 384B     		ldr	r3, .L212+4
 1722 0006 1288     		ldrh	r2, [r2]
 1723              		.loc 2 365 0
 1724 0008 3849     		ldr	r1, .L212+8
 1725              		.loc 2 369 0
 1726 000a 1B88     		ldrh	r3, [r3]
 1727              		.loc 2 363 0
 1728 000c 384E     		ldr	r6, .L212+12
 1729              		.loc 2 365 0
 1730 000e 0D68     		ldr	r5, [r1]
 1731              		.loc 2 364 0
 1732 0010 3849     		ldr	r1, .L212+16
 1733              		.loc 2 369 0
 1734 0012 02EB4200 		add	r0, r2, r2, lsl #1
 1735              		.loc 2 363 0
 1736 0016 83B0     		sub	sp, sp, #12
 1737              		.cfi_def_cfa_offset 32
 1738              		.loc 2 369 0
 1739 0018 02EB8002 		add	r2, r2, r0, lsl #2
 1740 001c 03EB8303 		add	r3, r3, r3, lsl #2
 1741 0020 1344     		add	r3, r3, r2
 1742              		.loc 2 363 0
 1743 0022 3268     		ldr	r2, [r6]
 1744              		.loc 2 369 0
 1745 0024 ADF80230 		strh	r3, [sp, #2]	@ movhi
 1746              		.loc 2 363 0
 1747 0028 0192     		str	r2, [sp, #4]
 1748              		.loc 2 364 0
 1749 002a 0C68     		ldr	r4, [r1]
 1750              	.LVL144:
 1751              		.loc 2 372 0
 1752 002c 002D     		cmp	r5, #0
 1753 002e 54D0     		beq	.L210
 1754              	.L190:
 1755              		.loc 2 377 0
 1756 0030 3148     		ldr	r0, .L212+20
 1757 0032 FFF7FEFF 		bl	send_char_to_computer
 1758              	.LVL145:
 1759              		.loc 2 378 0
 1760 0036 0DF10200 		add	r0, sp, #2
 1761 003a FFF7FEFF 		bl	send_int16_to_computer
 1762              	.LVL146:
 1763              		.loc 2 379 0
 1764 003e 2A48     		ldr	r0, .L212+4
 1765 0040 FFF7FEFF 		bl	send_int16_to_computer
 1766              	.LVL147:
 1767              		.loc 2 380 0
ARM GAS  C:\Users\MICHAE~1\AppData\Local\Temp\cc5ppSs7.s 			page 32


 1768 0044 2748     		ldr	r0, .L212
 1769 0046 FFF7FEFF 		bl	send_int16_to_computer
 1770              	.LVL148:
 1771              		.loc 2 382 0
 1772 004a EB68     		ldr	r3, [r5, #12]
 1773 004c 6BB1     		cbz	r3, .L192
 1774              		.loc 2 384 0
 1775 004e 2B4F     		ldr	r7, .L212+24
 1776              	.L193:
 1777 0050 3846     		mov	r0, r7
 1778 0052 FFF7FEFF 		bl	send_char_to_computer
 1779              	.LVL149:
 1780              		.loc 2 385 0
 1781 0056 2846     		mov	r0, r5
 1782 0058 FFF7FEFF 		bl	send_int16_to_computer
 1783              	.LVL150:
 1784              		.loc 2 386 0
 1785 005c A81C     		adds	r0, r5, #2
 1786 005e FFF7FEFF 		bl	send_int16_to_computer
 1787              	.LVL151:
 1788              		.loc 2 387 0
 1789 0062 ED68     		ldr	r5, [r5, #12]
 1790              	.LVL152:
 1791              		.loc 2 382 0
 1792 0064 EB68     		ldr	r3, [r5, #12]
 1793 0066 002B     		cmp	r3, #0
 1794 0068 F2D1     		bne	.L193
 1795              	.L192:
 1796              		.loc 2 389 0
 1797 006a 2448     		ldr	r0, .L212+24
 1798 006c FFF7FEFF 		bl	send_char_to_computer
 1799              	.LVL153:
 1800              		.loc 2 390 0
 1801 0070 2846     		mov	r0, r5
 1802 0072 FFF7FEFF 		bl	send_int16_to_computer
 1803              	.LVL154:
 1804              		.loc 2 391 0
 1805 0076 A81C     		adds	r0, r5, #2
 1806 0078 FFF7FEFF 		bl	send_int16_to_computer
 1807              	.LVL155:
 1808              		.loc 2 393 0
 1809 007c 6369     		ldr	r3, [r4, #20]
 1810 007e ABB1     		cbz	r3, .L194
 1811              		.loc 2 395 0
 1812 0080 1F4D     		ldr	r5, .L212+28
 1813              	.LVL156:
 1814              	.L195:
 1815 0082 2846     		mov	r0, r5
 1816 0084 FFF7FEFF 		bl	send_char_to_computer
 1817              	.LVL157:
 1818              		.loc 2 396 0
 1819 0088 2046     		mov	r0, r4
 1820 008a FFF7FEFF 		bl	send_float_to_computer
 1821              	.LVL158:
 1822              		.loc 2 397 0
 1823 008e 201D     		adds	r0, r4, #4
 1824 0090 FFF7FEFF 		bl	send_float_to_computer
ARM GAS  C:\Users\MICHAE~1\AppData\Local\Temp\cc5ppSs7.s 			page 33


 1825              	.LVL159:
 1826              		.loc 2 398 0
 1827 0094 04F10C00 		add	r0, r4, #12
 1828 0098 FFF7FEFF 		bl	send_int16_to_computer
 1829              	.LVL160:
 1830              		.loc 2 399 0
 1831 009c 04F10E00 		add	r0, r4, #14
 1832 00a0 FFF7FEFF 		bl	send_int16_to_computer
 1833              	.LVL161:
 1834              		.loc 2 400 0
 1835 00a4 6469     		ldr	r4, [r4, #20]
 1836              	.LVL162:
 1837              		.loc 2 393 0
 1838 00a6 6369     		ldr	r3, [r4, #20]
 1839 00a8 002B     		cmp	r3, #0
 1840 00aa EAD1     		bne	.L195
 1841              	.L194:
 1842              		.loc 2 402 0
 1843 00ac 1448     		ldr	r0, .L212+28
 1844 00ae FFF7FEFF 		bl	send_char_to_computer
 1845              	.LVL163:
 1846              		.loc 2 403 0
 1847 00b2 2046     		mov	r0, r4
 1848 00b4 FFF7FEFF 		bl	send_float_to_computer
 1849              	.LVL164:
 1850              		.loc 2 404 0
 1851 00b8 201D     		adds	r0, r4, #4
 1852 00ba FFF7FEFF 		bl	send_float_to_computer
 1853              	.LVL165:
 1854              		.loc 2 405 0
 1855 00be 04F10C00 		add	r0, r4, #12
 1856 00c2 FFF7FEFF 		bl	send_int16_to_computer
 1857              	.LVL166:
 1858              		.loc 2 406 0
 1859 00c6 04F10E00 		add	r0, r4, #14
 1860 00ca FFF7FEFF 		bl	send_int16_to_computer
 1861              	.LVL167:
 1862              	.L189:
 1863              		.loc 2 408 0
 1864 00ce 019A     		ldr	r2, [sp, #4]
 1865 00d0 3368     		ldr	r3, [r6]
 1866 00d2 9A42     		cmp	r2, r3
 1867 00d4 04D1     		bne	.L211
 1868 00d6 03B0     		add	sp, sp, #12
 1869              		.cfi_remember_state
 1870              		.cfi_def_cfa_offset 20
 1871              		@ sp needed
 1872 00d8 F0BD     		pop	{r4, r5, r6, r7, pc}
 1873              	.LVL168:
 1874              	.L210:
 1875              		.cfi_restore_state
 1876              		.loc 2 372 0 discriminator 1
 1877 00da 002C     		cmp	r4, #0
 1878 00dc A8D1     		bne	.L190
 1879 00de F6E7     		b	.L189
 1880              	.LVL169:
 1881              	.L211:
ARM GAS  C:\Users\MICHAE~1\AppData\Local\Temp\cc5ppSs7.s 			page 34


 1882              		.loc 2 408 0
 1883 00e0 FFF7FEFF 		bl	__stack_chk_fail
 1884              	.LVL170:
 1885              	.L213:
 1886              		.align	2
 1887              	.L212:
 1888 00e4 00000000 		.word	.LANCHOR5
 1889 00e8 00000000 		.word	.LANCHOR2
 1890 00ec 00000000 		.word	.LANCHOR0
 1891 00f0 00000000 		.word	__stack_chk_guard
 1892 00f4 00000000 		.word	.LANCHOR3
 1893 00f8 00000000 		.word	.LANCHOR12
 1894 00fc 00000000 		.word	.LANCHOR13
 1895 0100 00000000 		.word	.LANCHOR14
 1896              		.cfi_endproc
 1897              	.LFE270:
 1898              		.size	map_send_all_data_to_computer, .-map_send_all_data_to_computer
 1899              		.global	nb_walls
 1900              		.global	end_w
 1901              		.global	start_w
 1902              		.global	nb_points
 1903              		.global	end_p
 1904              		.global	start_p
 1905              		.section	.bss.end_p,"aw",%nobits
 1906              		.align	2
 1907              		.set	.LANCHOR1,. + 0
 1908              		.type	end_p, %object
 1909              		.size	end_p, 4
 1910              	end_p:
 1911 0000 00000000 		.space	4
 1912              		.section	.bss.end_w,"aw",%nobits
 1913              		.align	2
 1914              		.set	.LANCHOR4,. + 0
 1915              		.type	end_w, %object
 1916              		.size	end_w, 4
 1917              	end_w:
 1918 0000 00000000 		.space	4
 1919              		.section	.bss.nb_points,"aw",%nobits
 1920              		.align	1
 1921              		.set	.LANCHOR2,. + 0
 1922              		.type	nb_points, %object
 1923              		.size	nb_points, 2
 1924              	nb_points:
 1925 0000 0000     		.space	2
 1926              		.section	.bss.nb_walls,"aw",%nobits
 1927              		.align	1
 1928              		.set	.LANCHOR5,. + 0
 1929              		.type	nb_walls, %object
 1930              		.size	nb_walls, 2
 1931              	nb_walls:
 1932 0000 0000     		.space	2
 1933              		.section	.bss.start_p,"aw",%nobits
 1934              		.align	2
 1935              		.set	.LANCHOR0,. + 0
 1936              		.type	start_p, %object
 1937              		.size	start_p, 4
 1938              	start_p:
ARM GAS  C:\Users\MICHAE~1\AppData\Local\Temp\cc5ppSs7.s 			page 35


 1939 0000 00000000 		.space	4
 1940              		.section	.bss.start_w,"aw",%nobits
 1941              		.align	2
 1942              		.set	.LANCHOR3,. + 0
 1943              		.type	start_w, %object
 1944              		.size	start_w, 4
 1945              	start_w:
 1946 0000 00000000 		.space	4
 1947              		.section	.rodata.map_display_all_points.str1.4,"aMS",%progbits,1
 1948              		.align	2
 1949              	.LC0:
 1950 0000 0D0A2D2D 		.ascii	"\015\012--- NO POINTS --- \015\012\000"
 1950      2D204E4F 
 1950      20504F49 
 1950      4E545320 
 1950      2D2D2D20 
 1951 0017 00       		.space	1
 1952              	.LC1:
 1953 0018 0D0A2D2D 		.ascii	"\015\012--- START --- \015\012\000"
 1953      2D205354 
 1953      41525420 
 1953      2D2D2D20 
 1953      0D0A00
 1954 002b 00       		.space	1
 1955              	.LC2:
 1956 002c 783A2025 		.ascii	"x: %d   \011 y: %d \011 alpha: %f \015\012\000"
 1956      64202020 
 1956      0920793A 
 1956      20256420 
 1956      0920616C 
 1957 004b 00       		.space	1
 1958              	.LC3:
 1959 004c 2D2D2D20 		.ascii	"--- END --- \015\012\000"
 1959      454E4420 
 1959      2D2D2D20 
 1959      0D0A00
 1960              		.section	.rodata.p.11095,"a",%progbits
 1961              		.set	.LANCHOR8,. + 0
 1962              		.type	p.11095, %object
 1963              		.size	p.11095, 1
 1964              	p.11095:
 1965 0000 50       		.byte	80
 1966              		.section	.rodata.p.11118,"a",%progbits
 1967              		.set	.LANCHOR13,. + 0
 1968              		.type	p.11118, %object
 1969              		.size	p.11118, 1
 1970              	p.11118:
 1971 0000 50       		.byte	80
 1972              		.section	.rodata.s.11094,"a",%progbits
 1973              		.set	.LANCHOR6,. + 0
 1974              		.type	s.11094, %object
 1975              		.size	s.11094, 1
 1976              	s.11094:
 1977 0000 53       		.byte	83
 1978              		.section	.rodata.s.11105,"a",%progbits
 1979              		.set	.LANCHOR9,. + 0
 1980              		.type	s.11105, %object
ARM GAS  C:\Users\MICHAE~1\AppData\Local\Temp\cc5ppSs7.s 			page 36


 1981              		.size	s.11105, 1
 1982              	s.11105:
 1983 0000 53       		.byte	83
 1984              		.section	.rodata.s.11117,"a",%progbits
 1985              		.set	.LANCHOR12,. + 0
 1986              		.type	s.11117, %object
 1987              		.size	s.11117, 1
 1988              	s.11117:
 1989 0000 53       		.byte	83
 1990              		.section	.rodata.w.11106,"a",%progbits
 1991              		.set	.LANCHOR11,. + 0
 1992              		.type	w.11106, %object
 1993              		.size	w.11106, 1
 1994              	w.11106:
 1995 0000 57       		.byte	87
 1996              		.section	.rodata.w.11119,"a",%progbits
 1997              		.set	.LANCHOR14,. + 0
 1998              		.type	w.11119, %object
 1999              		.size	w.11119, 1
 2000              	w.11119:
 2001 0000 57       		.byte	87
 2002              		.section	.rodata.zero.11096,"a",%progbits
 2003              		.align	1
 2004              		.set	.LANCHOR7,. + 0
 2005              		.type	zero.11096, %object
 2006              		.size	zero.11096, 2
 2007              	zero.11096:
 2008 0000 0000     		.space	2
 2009              		.section	.rodata.zero.11107,"a",%progbits
 2010              		.align	1
 2011              		.set	.LANCHOR10,. + 0
 2012              		.type	zero.11107, %object
 2013              		.size	zero.11107, 2
 2014              	zero.11107:
 2015 0000 0000     		.space	2
 2016              		.text
 2017              	.Letext0:
 2018              		.file 3 "c:\\eclipse_e-puck2\\tools\\gcc-arm-none-eabi-7-2017-q4-major-win32\\lib\\gcc\\arm-none-e
 2019              		.file 4 "c:\\eclipse_e-puck2\\tools\\gcc-arm-none-eabi-7-2017-q4-major-win32\\arm-none-eabi\\inclu
 2020              		.file 5 "c:\\eclipse_e-puck2\\tools\\gcc-arm-none-eabi-7-2017-q4-major-win32\\arm-none-eabi\\inclu
 2021              		.file 6 "c:\\eclipse_e-puck2\\tools\\gcc-arm-none-eabi-7-2017-q4-major-win32\\arm-none-eabi\\inclu
 2022              		.file 7 "c:\\eclipse_e-puck2\\tools\\gcc-arm-none-eabi-7-2017-q4-major-win32\\arm-none-eabi\\inclu
 2023              		.file 8 "c:\\eclipse_e-puck2\\tools\\gcc-arm-none-eabi-7-2017-q4-major-win32\\arm-none-eabi\\inclu
 2024              		.file 9 "c:\\eclipse_e-puck2\\tools\\gcc-arm-none-eabi-7-2017-q4-major-win32\\arm-none-eabi\\inclu
 2025              		.file 10 "../../lib/e-puck2_main-processor/ChibiOS//os/rt/ports/ARMCMx/compilers/GCC/chtypes.h"
 2026              		.file 11 "../../lib/e-puck2_main-processor/ChibiOS//os/rt/include/chsystypes.h"
 2027              		.file 12 "../../lib/e-puck2_main-processor/ChibiOS//os/rt/include/chschd.h"
 2028              		.file 13 "../../lib/e-puck2_main-processor/ChibiOS//os/ext/CMSIS/include/core_cm4.h"
 2029              		.file 14 "../../lib/e-puck2_main-processor/ChibiOS//os/ext/CMSIS/ST/system_stm32f4xx.h"
 2030              		.file 15 "../../lib/e-puck2_main-processor/ChibiOS//os/ext/CMSIS/ST/stm32f407xx.h"
 2031              		.file 16 "../../lib/e-puck2_main-processor/ChibiOS//os/rt/ports/ARMCMx/chcore.h"
 2032              		.file 17 "../../lib/e-puck2_main-processor/ChibiOS//os/rt/ports/ARMCMx/chcore_v7m.h"
 2033              		.file 18 "../../lib/e-puck2_main-processor/ChibiOS//os/rt/include/chdebug.h"
 2034              		.file 19 "../../lib/e-puck2_main-processor/ChibiOS//os/rt/include/chtm.h"
 2035              		.file 20 "../../lib/e-puck2_main-processor/ChibiOS//os/rt/include/chstats.h"
 2036              		.file 21 "../../lib/e-puck2_main-processor/ChibiOS//os/rt/include/chsem.h"
 2037              		.file 22 "../../lib/e-puck2_main-processor/ChibiOS//os/rt/include/chmtx.h"
ARM GAS  C:\Users\MICHAE~1\AppData\Local\Temp\cc5ppSs7.s 			page 37


 2038              		.file 23 "../../lib/e-puck2_main-processor/ChibiOS//os/rt/include/chregistry.h"
 2039              		.file 24 "../../lib/e-puck2_main-processor/ChibiOS//os/rt/include/chevents.h"
 2040              		.file 25 "../../lib/e-puck2_main-processor/ChibiOS//os/rt/include/chqueues.h"
 2041              		.file 26 "../../lib/e-puck2_main-processor/ChibiOS//os/rt/include/chstreams.h"
 2042              		.file 27 "../../lib/e-puck2_main-processor/ChibiOS//os/hal/ports/STM32/STM32F4xx/stm32_dma.h"
 2043              		.file 28 "../../lib/e-puck2_main-processor/ChibiOS//os/hal/include/hal_ioblock.h"
 2044              		.file 29 "../../lib/e-puck2_main-processor/ChibiOS//os/hal/ports/STM32/LLD/GPIOv2/pal_lld.h"
 2045              		.file 30 "../../lib/e-puck2_main-processor/ChibiOS//os/hal/include/adc.h"
 2046              		.file 31 "../../lib/e-puck2_main-processor/ChibiOS//os/hal/ports/STM32/STM32F4xx/adc_lld.h"
 2047              		.file 32 "../../lib/e-puck2_main-processor/ChibiOS//os/hal/include/can.h"
 2048              		.file 33 "../../lib/e-puck2_main-processor/ChibiOS//os/hal/ports/STM32/LLD/can_lld.h"
 2049              		.file 34 "../../lib/e-puck2_main-processor/ChibiOS//os/hal/include/dac.h"
 2050              		.file 35 "../../lib/e-puck2_main-processor/ChibiOS//os/hal/ports/STM32/LLD/DACv1/dac_lld.h"
 2051              		.file 36 "../../lib/e-puck2_main-processor/ChibiOS//os/hal/include/ext.h"
 2052              		.file 37 "../../lib/e-puck2_main-processor/ChibiOS//os/hal/ports/STM32/LLD/ext_lld.h"
 2053              		.file 38 "../../lib/e-puck2_main-processor/ChibiOS//os/hal/include/gpt.h"
 2054              		.file 39 "../../lib/e-puck2_main-processor/ChibiOS//os/hal/ports/STM32/LLD/TIMv1/gpt_lld.h"
 2055              		.file 40 "../../lib/e-puck2_main-processor/ChibiOS//os/hal/ports/STM32/LLD/TIMv1/stm32_tim.h"
 2056              		.file 41 "../../lib/e-puck2_main-processor/ChibiOS//os/hal/include/i2c.h"
 2057              		.file 42 "../../lib/e-puck2_main-processor/ChibiOS//os/hal/ports/STM32/LLD/I2Cv1/i2c_lld.h"
 2058              		.file 43 "../../lib/e-puck2_main-processor/ChibiOS//os/hal/include/i2s.h"
 2059              		.file 44 "../../lib/e-puck2_main-processor/ChibiOS//os/hal/ports/STM32/LLD/SPIv1/i2s_lld.h"
 2060              		.file 45 "../../lib/e-puck2_main-processor/ChibiOS//os/hal/include/pwm.h"
 2061              		.file 46 "../../lib/e-puck2_main-processor/ChibiOS//os/hal/ports/STM32/LLD/TIMv1/pwm_lld.h"
 2062              		.file 47 "../../lib/e-puck2_main-processor/ChibiOS//os/hal/include/serial.h"
 2063              		.file 48 "../../lib/e-puck2_main-processor/ChibiOS//os/hal/ports/STM32/LLD/USARTv1/serial_lld.h"
 2064              		.file 49 "../../lib/e-puck2_main-processor/ChibiOS//os/hal/include/sdc.h"
 2065              		.file 50 "../../lib/e-puck2_main-processor/ChibiOS//os/hal/ports/STM32/LLD/sdc_lld.h"
 2066              		.file 51 "../../lib/e-puck2_main-processor/ChibiOS//os/hal/include/spi.h"
 2067              		.file 52 "../../lib/e-puck2_main-processor/ChibiOS//os/hal/ports/STM32/LLD/SPIv1/spi_lld.h"
 2068              		.file 53 "../../lib/e-puck2_main-processor/ChibiOS//os/hal/include/usb.h"
 2069              		.file 54 "../../lib/e-puck2_main-processor/ChibiOS//os/hal/ports/STM32/LLD/OTGv1/usb_lld.h"
 2070              		.file 55 "../../lib/e-puck2_main-processor/ChibiOS//os/hal/ports/STM32/LLD/OTGv1/stm32_otg.h"
 2071              		.file 56 "c:\\eclipse_e-puck2\\tools\\gcc-arm-none-eabi-7-2017-q4-major-win32\\arm-none-eabi\\incl
 2072              		.file 57 "c:\\eclipse_e-puck2\\tools\\gcc-arm-none-eabi-7-2017-q4-major-win32\\lib\\gcc\\arm-none-
 2073              		.file 58 "<built-in>"
 2074              		.file 59 "transmission.h"